---
triple:          'arm64-apple-darwin'
binary-path:     '/Users/andrewgossen/Documents/SolitaireC++/solitaire'
relocations:
  - { offsetInCU: 0x6ADF, offset: 0x6ADF, size: 0x8, addend: 0x0, symName: __ZNSt3__124__put_character_sequenceB8ue170006IcNS_11char_traitsIcEEEERNS_13basic_ostreamIT_T0_EES7_PKS4_m, symObjAddr: 0x2BB0, symBinAddr: 0x100003E08, symSize: 0x1EC }
  - { offsetInCU: 0x7DA2, offset: 0x7DA2, size: 0x8, addend: 0x0, symName: __ZNSt3__19__shuffleB8ue170006INS_17_ClassicAlgPolicyENS_11__wrap_iterIP4CardEES5_RNS_23mersenne_twister_engineIjLm32ELm624ELm397ELm31ELj2567483615ELm11ELj4294967295ELm7ELj2636928640ELm15ELj4022730752ELm18ELj1812433253EEEEET0_S9_T1_OT2_, symObjAddr: 0x6924, symBinAddr: 0x100007B7C, symSize: 0x13C }
  - { offsetInCU: 0x9463, offset: 0x9463, size: 0x8, addend: 0x0, symName: __ZNSt3__1lsB8ue170006INS_11char_traitsIcEEEERNS_13basic_ostreamIcT_EES6_PKc, symObjAddr: 0xE0, symBinAddr: 0x100001338, symSize: 0x48 }
  - { offsetInCU: 0x94A9, offset: 0x94A9, size: 0x8, addend: 0x0, symName: __ZNSt3__14endlB8ue170006IcNS_11char_traitsIcEEEERNS_13basic_ostreamIT_T0_EES7_, symObjAddr: 0x338, symBinAddr: 0x100001590, symSize: 0x58 }
  - { offsetInCU: 0x95EA, offset: 0x95EA, size: 0x8, addend: 0x0, symName: __ZNSt3__17shuffleB8ue170006INS_11__wrap_iterIP4CardEERNS_23mersenne_twister_engineIjLm32ELm624ELm397ELm31ELj2567483615ELm11ELj4294967295ELm7ELj2636928640ELm15ELj4022730752ELm18ELj1812433253EEEEEvT_S8_OT0_, symObjAddr: 0xCFC, symBinAddr: 0x100001F54, symSize: 0x48 }
  - { offsetInCU: 0x9640, offset: 0x9640, size: 0x8, addend: 0x0, symName: __ZNSt3__118__constexpr_strlenB8ue170006EPKc, symObjAddr: 0x2B24, symBinAddr: 0x100003D7C, symSize: 0x24 }
  - { offsetInCU: 0x966C, offset: 0x966C, size: 0x8, addend: 0x0, symName: __ZNSt3__116__pad_and_outputB8ue170006IcNS_11char_traitsIcEEEENS_19ostreambuf_iteratorIT_T0_EES6_PKS4_S8_S8_RNS_8ios_baseES4_, symObjAddr: 0x2DB8, symBinAddr: 0x100004010, symSize: 0x240 }
  - { offsetInCU: 0x973B, offset: 0x973B, size: 0x8, addend: 0x0, symName: __ZNSt3__112__to_addressB8ue170006IcEEPT_S2_, symObjAddr: 0x3228, symBinAddr: 0x100004480, symSize: 0x14 }
  - { offsetInCU: 0x97A3, offset: 0x97A3, size: 0x8, addend: 0x0, symName: __ZNSt3__19use_facetB8ue170006INS_5ctypeIcEEEERKT_RKNS_6localeE, symObjAddr: 0x34E0, symBinAddr: 0x100004738, symSize: 0x2C }
  - { offsetInCU: 0x9C70, offset: 0x9C70, size: 0x8, addend: 0x0, symName: __ZNSt3__1miB8ue170006IPK4CardPS1_EEDTmicldtfp_4baseEcldtfp0_4baseEERKNS_11__wrap_iterIT_EERKNS6_IT0_EE, symObjAddr: 0x35FC, symBinAddr: 0x100004854, symSize: 0x48 }
  - { offsetInCU: 0x9CEF, offset: 0x9CEF, size: 0x8, addend: 0x0, symName: __ZNSt3__112__to_addressB8ue170006I4CardEEPT_S3_, symObjAddr: 0x3E04, symBinAddr: 0x10000505C, symSize: 0x14 }
  - { offsetInCU: 0x9D24, offset: 0x9D24, size: 0x8, addend: 0x0, symName: __ZNSt3__113move_backwardB8ue170006IP4CardS2_EET0_T_S4_S3_, symObjAddr: 0x3F14, symBinAddr: 0x10000516C, symSize: 0x40 }
  - { offsetInCU: 0x9D7E, offset: 0x9D7E, size: 0x8, addend: 0x0, symName: __ZNSt3__115__move_backwardB8ue170006INS_17_ClassicAlgPolicyEP4CardS3_S3_EENS_4pairIT0_T2_EES5_T1_S6_, symObjAddr: 0x3F84, symBinAddr: 0x1000051DC, symSize: 0x44 }
  - { offsetInCU: 0x9DEA, offset: 0x9DEA, size: 0x8, addend: 0x0, symName: __ZNSt3__123__dispatch_copy_or_moveB8ue170006INS_17_ClassicAlgPolicyENS_20__move_backward_loopIS1_EENS_23__move_backward_trivialEP4CardS6_S6_EENS_4pairIT2_T4_EES8_T3_S9_, symObjAddr: 0x3FC8, symBinAddr: 0x100005220, symSize: 0x44 }
  - { offsetInCU: 0x9E68, offset: 0x9E68, size: 0x8, addend: 0x0, symName: __ZNSt3__121__unwrap_and_dispatchB8ue170006INS_10__overloadINS_20__move_backward_loopINS_17_ClassicAlgPolicyEEENS_23__move_backward_trivialEEEP4CardS8_S8_Li0EEENS_4pairIT0_T2_EESA_T1_SB_, symObjAddr: 0x400C, symBinAddr: 0x100005264, symSize: 0xB4 }
  - { offsetInCU: 0x9EF6, offset: 0x9EF6, size: 0x8, addend: 0x0, symName: __ZNSt3__114__unwrap_rangeB8ue170006IP4CardS2_EENS_4pairIT0_S4_EET_S6_, symObjAddr: 0x40C0, symBinAddr: 0x100005318, symSize: 0x60 }
  - { offsetInCU: 0xA0BA, offset: 0xA0BA, size: 0x8, addend: 0x0, symName: __ZNSt3__113__unwrap_iterB8ue170006IP4CardNS_18__unwrap_iter_implIS2_Lb1EEELi0EEEDTclsrT0_8__unwrapclsr3stdE7declvalIT_EEEES6_, symObjAddr: 0x4168, symBinAddr: 0x1000053C0, symSize: 0x24 }
  - { offsetInCU: 0xA0FE, offset: 0xA0FE, size: 0x8, addend: 0x0, symName: __ZNSt3__19make_pairB8ue170006IP4CardS2_EENS_4pairINS_18__unwrap_ref_decayIT_E4typeENS4_IT0_E4typeEEEOS5_OS8_, symObjAddr: 0x418C, symBinAddr: 0x1000053E4, symSize: 0x38 }
  - { offsetInCU: 0xA14D, offset: 0xA14D, size: 0x8, addend: 0x0, symName: __ZNSt3__114__rewrap_rangeB8ue170006IP4CardS2_EET_S3_T0_, symObjAddr: 0x41C4, symBinAddr: 0x10000541C, symSize: 0x2C }
  - { offsetInCU: 0xA199, offset: 0xA199, size: 0x8, addend: 0x0, symName: __ZNSt3__113__rewrap_iterB8ue170006IP4CardS2_NS_18__unwrap_iter_implIS2_Lb1EEEEET_S5_T0_, symObjAddr: 0x41F0, symBinAddr: 0x100005448, symSize: 0x3C }
  - { offsetInCU: 0xA1EE, offset: 0xA1EE, size: 0x8, addend: 0x0, symName: __ZNSt3__128__copy_backward_trivial_implB8ue170006I4CardS1_EENS_4pairIPT_PT0_EES4_S4_S6_, symObjAddr: 0x422C, symBinAddr: 0x100005484, symSize: 0x90 }
  - { offsetInCU: 0xA256, offset: 0xA256, size: 0x8, addend: 0x0, symName: __ZNSt3__119__constexpr_memmoveB8ue170006I4CardS1_Li0EEEPT_S3_PT0_NS_15__element_countE, symObjAddr: 0x42BC, symBinAddr: 0x100005514, symSize: 0x68 }
  - { offsetInCU: 0xA2C4, offset: 0xA2C4, size: 0x8, addend: 0x0, symName: __ZNSt3__19make_pairB8ue170006IRP4CardS3_EENS_4pairINS_18__unwrap_ref_decayIT_E4typeENS5_IT0_E4typeEEEOS6_OS9_, symObjAddr: 0x4324, symBinAddr: 0x10000557C, symSize: 0x38 }
  - { offsetInCU: 0xA366, offset: 0xA366, size: 0x8, addend: 0x0, symName: __ZNSt3__13maxB8ue170006ImEERKT_S3_S3_, symObjAddr: 0x45AC, symBinAddr: 0x100005804, symSize: 0x2C }
  - { offsetInCU: 0xA3A9, offset: 0xA3A9, size: 0x8, addend: 0x0, symName: __ZNSt3__13minB8ue170006ImEERKT_S3_S3_, symObjAddr: 0x45D8, symBinAddr: 0x100005830, symSize: 0x2C }
  - { offsetInCU: 0xA5D6, offset: 0xA5D6, size: 0x8, addend: 0x0, symName: __ZNSt3__13minB8ue170006ImNS_6__lessIvvEEEERKT_S5_S5_T0_, symObjAddr: 0x4664, symBinAddr: 0x1000058BC, symSize: 0x54 }
  - { offsetInCU: 0xA675, offset: 0xA675, size: 0x8, addend: 0x0, symName: __ZNSt3__120__throw_length_errorB8ue170006EPKc, symObjAddr: 0x474C, symBinAddr: 0x1000059A4, symSize: 0x64 }
  - { offsetInCU: 0xA69F, offset: 0xA69F, size: 0x8, addend: 0x0, symName: __ZNSt3__13maxB8ue170006ImNS_6__lessIvvEEEERKT_S5_S5_T0_, symObjAddr: 0x4890, symBinAddr: 0x100005AE8, symSize: 0x54 }
  - { offsetInCU: 0xA6F9, offset: 0xA6F9, size: 0x8, addend: 0x0, symName: __ZNSt3__119__allocate_at_leastB8ue170006INS_9allocatorI4CardEEEENS_19__allocation_resultINS_16allocator_traitsIT_E7pointerEEERS6_m, symObjAddr: 0x4A00, symBinAddr: 0x100005C58, symSize: 0x40 }
  - { offsetInCU: 0xA73C, offset: 0xA73C, size: 0x8, addend: 0x0, symName: __ZNSt3__117__libcpp_allocateB8ue170006Emm, symObjAddr: 0x4BA4, symBinAddr: 0x100005DFC, symSize: 0x60 }
  - { offsetInCU: 0xA796, offset: 0xA796, size: 0x8, addend: 0x0, symName: __ZNSt3__124__is_overaligned_for_newB8ue170006Em, symObjAddr: 0x4C04, symBinAddr: 0x100005E5C, symSize: 0x20 }
  - { offsetInCU: 0xA7C4, offset: 0xA7C4, size: 0x8, addend: 0x0, symName: __ZNSt3__121__libcpp_operator_newB8ue170006IJmSt11align_val_tEEEPvDpT_, symObjAddr: 0x4C24, symBinAddr: 0x100005E7C, symSize: 0x2C }
  - { offsetInCU: 0xA811, offset: 0xA811, size: 0x8, addend: 0x0, symName: __ZNSt3__121__libcpp_operator_newB8ue170006IJmEEEPvDpT_, symObjAddr: 0x4C50, symBinAddr: 0x100005EA8, symSize: 0x24 }
  - { offsetInCU: 0xA84A, offset: 0xA84A, size: 0x8, addend: 0x0, symName: __ZNSt3__14moveB8ue170006IP4CardS2_EET0_T_S4_S3_, symObjAddr: 0x4CD8, symBinAddr: 0x100005F30, symSize: 0x40 }
  - { offsetInCU: 0xA8A4, offset: 0xA8A4, size: 0x8, addend: 0x0, symName: __ZNSt3__14swapB8ue170006IP4CardEENS_9enable_ifIXaasr21is_move_constructibleIT_EE5valuesr18is_move_assignableIS4_EE5valueEvE4typeERS4_S7_, symObjAddr: 0x4DAC, symBinAddr: 0x100006004, symSize: 0x3C }
  - { offsetInCU: 0xA8F5, offset: 0xA8F5, size: 0x8, addend: 0x0, symName: __ZNSt3__16__moveB8ue170006INS_17_ClassicAlgPolicyEP4CardS3_S3_EENS_4pairIT0_T2_EES5_T1_S6_, symObjAddr: 0x4DE8, symBinAddr: 0x100006040, symSize: 0x44 }
  - { offsetInCU: 0xA961, offset: 0xA961, size: 0x8, addend: 0x0, symName: __ZNSt3__123__dispatch_copy_or_moveB8ue170006INS_17_ClassicAlgPolicyENS_11__move_loopIS1_EENS_14__move_trivialEP4CardS6_S6_EENS_4pairIT2_T4_EES8_T3_S9_, symObjAddr: 0x4E2C, symBinAddr: 0x100006084, symSize: 0x44 }
  - { offsetInCU: 0xA9DF, offset: 0xA9DF, size: 0x8, addend: 0x0, symName: __ZNSt3__121__unwrap_and_dispatchB8ue170006INS_10__overloadINS_11__move_loopINS_17_ClassicAlgPolicyEEENS_14__move_trivialEEEP4CardS8_S8_Li0EEENS_4pairIT0_T2_EESA_T1_SB_, symObjAddr: 0x4E70, symBinAddr: 0x1000060C8, symSize: 0xB4 }
  - { offsetInCU: 0xAAB3, offset: 0xAAB3, size: 0x8, addend: 0x0, symName: __ZNSt3__119__copy_trivial_implB8ue170006I4CardS1_EENS_4pairIPT_PT0_EES4_S4_S6_, symObjAddr: 0x4F6C, symBinAddr: 0x1000061C4, symSize: 0x88 }
  - { offsetInCU: 0xAB1B, offset: 0xAB1B, size: 0x8, addend: 0x0, symName: __ZNSt3__19make_pairB8ue170006IRP4CardS2_EENS_4pairINS_18__unwrap_ref_decayIT_E4typeENS5_IT0_E4typeEEEOS6_OS9_, symObjAddr: 0x4FF4, symBinAddr: 0x10000624C, symSize: 0x38 }
  - { offsetInCU: 0xAB6A, offset: 0xAB6A, size: 0x8, addend: 0x0, symName: __ZNSt3__18distanceB8ue170006INS_13move_iteratorIP4CardEEEENS_15iterator_traitsIT_E15difference_typeES6_S6_, symObjAddr: 0x5178, symBinAddr: 0x1000063D0, symSize: 0x3C }
  - { offsetInCU: 0xABAD, offset: 0xABAD, size: 0x8, addend: 0x0, symName: __ZNSt3__110__distanceB8ue170006INS_13move_iteratorIP4CardEEEENS_15iterator_traitsIT_E15difference_typeES6_S6_NS_26random_access_iterator_tagE, symObjAddr: 0x52C0, symBinAddr: 0x100006518, symSize: 0x30 }
  - { offsetInCU: 0xABFA, offset: 0xABFA, size: 0x8, addend: 0x0, symName: __ZNSt3__1miB8ue170006IP4CardS2_EEDTmicldtfp_4baseEcldtfp0_4baseEERKNS_13move_iteratorIT_EERKNS4_IT0_EE, symObjAddr: 0x52F0, symBinAddr: 0x100006548, symSize: 0x48 }
  - { offsetInCU: 0xAC49, offset: 0xAC49, size: 0x8, addend: 0x0, symName: __ZNSt3__142__uninitialized_allocator_move_if_noexceptB8ue170006INS_9allocatorI4CardEENS_16reverse_iteratorIPS2_EES6_S2_vEET1_RT_T0_SA_S7_, symObjAddr: 0x5444, symBinAddr: 0x10000669C, symSize: 0x78 }
  - { offsetInCU: 0xACC6, offset: 0xACC6, size: 0x8, addend: 0x0, symName: __ZNSt3__142__uninitialized_allocator_move_if_noexceptB8ue170006INS_9allocatorI4CardEEPS2_S4_S2_vEET1_RT_T0_S8_S5_, symObjAddr: 0x5508, symBinAddr: 0x100006760, symSize: 0x38 }
  - { offsetInCU: 0xAD42, offset: 0xAD42, size: 0x8, addend: 0x0, symName: __ZNSt3__14moveB8ue170006INS_16reverse_iteratorIP4CardEES4_EET0_T_S6_S5_, symObjAddr: 0x5650, symBinAddr: 0x1000068A8, symSize: 0x78 }
  - { offsetInCU: 0xAD9C, offset: 0xAD9C, size: 0x8, addend: 0x0, symName: __ZNSt3__16__moveB8ue170006INS_17_ClassicAlgPolicyENS_16reverse_iteratorIP4CardEES5_S5_EENS_4pairIT0_T2_EES7_T1_S8_, symObjAddr: 0x56C8, symBinAddr: 0x100006920, symSize: 0x64 }
  - { offsetInCU: 0xAE08, offset: 0xAE08, size: 0x8, addend: 0x0, symName: __ZNSt3__123__dispatch_copy_or_moveB8ue170006INS_17_ClassicAlgPolicyENS_11__move_loopIS1_EENS_14__move_trivialENS_16reverse_iteratorIP4CardEES8_S8_EENS_4pairIT2_T4_EESA_T3_SB_, symObjAddr: 0x572C, symBinAddr: 0x100006984, symSize: 0x64 }
  - { offsetInCU: 0xAE86, offset: 0xAE86, size: 0x8, addend: 0x0, symName: __ZNSt3__121__unwrap_and_dispatchB8ue170006INS_10__overloadINS_11__move_loopINS_17_ClassicAlgPolicyEEENS_14__move_trivialEEENS_16reverse_iteratorIP4CardEESA_SA_Li0EEENS_4pairIT0_T2_EESC_T1_SD_, symObjAddr: 0x5790, symBinAddr: 0x1000069E8, symSize: 0x12C }
  - { offsetInCU: 0xAF16, offset: 0xAF16, size: 0x8, addend: 0x0, symName: __ZNSt3__114__unwrap_rangeB8ue170006INS_16reverse_iteratorIP4CardEES4_EENS_4pairIT0_S6_EET_S8_, symObjAddr: 0x58BC, symBinAddr: 0x100006B14, symSize: 0x84 }
  - { offsetInCU: 0xB0D0, offset: 0xB0D0, size: 0x8, addend: 0x0, symName: __ZNSt3__113__unwrap_iterB8ue170006INS_16reverse_iteratorIP4CardEENS_18__unwrap_iter_implIS4_Lb0EEELi0EEEDTclsrT0_8__unwrapclsr3stdE7declvalIT_EEEES8_, symObjAddr: 0x59E8, symBinAddr: 0x100006C40, symSize: 0x44 }
  - { offsetInCU: 0xB114, offset: 0xB114, size: 0x8, addend: 0x0, symName: __ZNSt3__19make_pairB8ue170006INS_16reverse_iteratorIP4CardEES4_EENS_4pairINS_18__unwrap_ref_decayIT_E4typeENS6_IT0_E4typeEEEOS7_OSA_, symObjAddr: 0x5A2C, symBinAddr: 0x100006C84, symSize: 0x38 }
  - { offsetInCU: 0xB163, offset: 0xB163, size: 0x8, addend: 0x0, symName: __ZNSt3__114__rewrap_rangeB8ue170006INS_16reverse_iteratorIP4CardEES4_EET_S5_T0_, symObjAddr: 0x5A64, symBinAddr: 0x100006CBC, symSize: 0x5C }
  - { offsetInCU: 0xB1AF, offset: 0xB1AF, size: 0x8, addend: 0x0, symName: __ZNSt3__113__rewrap_iterB8ue170006INS_16reverse_iteratorIP4CardEES4_NS_18__unwrap_iter_implIS4_Lb0EEEEET_S7_T0_, symObjAddr: 0x5AC0, symBinAddr: 0x100006D18, symSize: 0x74 }
  - { offsetInCU: 0xB204, offset: 0xB204, size: 0x8, addend: 0x0, symName: __ZNSt3__1neB8ue170006IP4CardS2_EEbRKNS_16reverse_iteratorIT_EERKNS3_IT0_EE, symObjAddr: 0x5B34, symBinAddr: 0x100006D8C, symSize: 0x48 }
  - { offsetInCU: 0xB380, offset: 0xB380, size: 0x8, addend: 0x0, symName: __ZNSt3__119__libcpp_deallocateB8ue170006EPvmm, symObjAddr: 0x5F30, symBinAddr: 0x100007188, symSize: 0x60 }
  - { offsetInCU: 0xB3E5, offset: 0xB3E5, size: 0x8, addend: 0x0, symName: __ZNSt3__127__do_deallocate_handle_sizeB8ue170006IJSt11align_val_tEEEvPvmDpT_, symObjAddr: 0x5F90, symBinAddr: 0x1000071E8, symSize: 0x30 }
  - { offsetInCU: 0xB438, offset: 0xB438, size: 0x8, addend: 0x0, symName: __ZNSt3__127__do_deallocate_handle_sizeB8ue170006IJEEEvPvmDpT_, symObjAddr: 0x5FC0, symBinAddr: 0x100007218, symSize: 0x28 }
  - { offsetInCU: 0xB476, offset: 0xB476, size: 0x8, addend: 0x0, symName: __ZNSt3__124__libcpp_operator_deleteB8ue170006IJPvSt11align_val_tEEEvDpT_, symObjAddr: 0x5FE8, symBinAddr: 0x100007240, symSize: 0x2C }
  - { offsetInCU: 0xB4BF, offset: 0xB4BF, size: 0x8, addend: 0x0, symName: __ZNSt3__124__libcpp_operator_deleteB8ue170006IJPvEEEvDpT_, symObjAddr: 0x6014, symBinAddr: 0x10000726C, symSize: 0x24 }
  - { offsetInCU: 0xB4F4, offset: 0xB4F4, size: 0x8, addend: 0x0, symName: __ZNSt3__112__to_addressB8ue170006I4MoveEEPT_S3_, symObjAddr: 0x6454, symBinAddr: 0x1000076AC, symSize: 0x14 }
  - { offsetInCU: 0xB54D, offset: 0xB54D, size: 0x8, addend: 0x0, symName: __ZNSt3__1miB8ue170006IP4CardS2_EEDTmicldtfp_4baseEcldtfp0_4baseEERKNS_11__wrap_iterIT_EERKNS4_IT0_EE, symObjAddr: 0x6A80, symBinAddr: 0x100007CD8, symSize: 0x48 }
  - { offsetInCU: 0xB599, offset: 0xB599, size: 0x8, addend: 0x0, symName: __ZNSt3__1ltB8ue170006IP4CardEEbRKNS_11__wrap_iterIT_EES7_, symObjAddr: 0x6B24, symBinAddr: 0x100007D7C, symSize: 0x48 }
  - { offsetInCU: 0xB5DC, offset: 0xB5DC, size: 0x8, addend: 0x0, symName: __ZNSt3__113__countl_zeroB8ue170006ImEEiT_, symObjAddr: 0x6EC4, symBinAddr: 0x10000811C, symSize: 0x54 }
  - { offsetInCU: 0xB611, offset: 0xB611, size: 0x8, addend: 0x0, symName: __ZNSt3__112__libcpp_clzB8ue170006Em, symObjAddr: 0x7554, symBinAddr: 0x1000087AC, symSize: 0x1C }
  - { offsetInCU: 0xB63D, offset: 0xB63D, size: 0x8, addend: 0x0, symName: __ZNSt3__19iter_swapB8ue170006INS_11__wrap_iterIP4CardEES4_EEvT_T0_, symObjAddr: 0x75A4, symBinAddr: 0x1000087FC, symSize: 0x50 }
  - { offsetInCU: 0xB685, offset: 0xB685, size: 0x8, addend: 0x0, symName: __ZNSt3__14swapB8ue170006I4CardEENS_9enable_ifIXaasr21is_move_constructibleIT_EE5valuesr18is_move_assignableIS3_EE5valueEvE4typeERS3_S6_, symObjAddr: 0x75F4, symBinAddr: 0x10000884C, symSize: 0x58 }
  - { offsetInCU: 0xB6D6, offset: 0xB6D6, size: 0x8, addend: 0x0, symName: __ZNSt3__119__allocate_at_leastB8ue170006INS_9allocatorI4MoveEEEENS_19__allocation_resultINS_16allocator_traitsIT_E7pointerEEERS6_m, symObjAddr: 0x7EE0, symBinAddr: 0x100009138, symSize: 0x40 }
  - { offsetInCU: 0xB719, offset: 0xB719, size: 0x8, addend: 0x0, symName: __ZNSt3__142__uninitialized_allocator_move_if_noexceptB8ue170006INS_9allocatorI4MoveEENS_16reverse_iteratorIPS2_EES6_S2_vEET1_RT_T0_SA_S7_, symObjAddr: 0x8188, symBinAddr: 0x1000093E0, symSize: 0x78 }
  - { offsetInCU: 0xB796, offset: 0xB796, size: 0x8, addend: 0x0, symName: __ZNSt3__14swapB8ue170006IP4MoveEENS_9enable_ifIXaasr21is_move_constructibleIT_EE5valuesr18is_move_assignableIS4_EE5valueEvE4typeERS4_S7_, symObjAddr: 0x824C, symBinAddr: 0x1000094A4, symSize: 0x3C }
  - { offsetInCU: 0xB7E7, offset: 0xB7E7, size: 0x8, addend: 0x0, symName: __ZNSt3__14moveB8ue170006INS_16reverse_iteratorIP4MoveEES4_EET0_T_S6_S5_, symObjAddr: 0x8350, symBinAddr: 0x1000095A8, symSize: 0x78 }
  - { offsetInCU: 0xB841, offset: 0xB841, size: 0x8, addend: 0x0, symName: __ZNSt3__16__moveB8ue170006INS_17_ClassicAlgPolicyENS_16reverse_iteratorIP4MoveEES5_S5_EENS_4pairIT0_T2_EES7_T1_S8_, symObjAddr: 0x83C8, symBinAddr: 0x100009620, symSize: 0x64 }
  - { offsetInCU: 0xB8AD, offset: 0xB8AD, size: 0x8, addend: 0x0, symName: __ZNSt3__123__dispatch_copy_or_moveB8ue170006INS_17_ClassicAlgPolicyENS_11__move_loopIS1_EENS_14__move_trivialENS_16reverse_iteratorIP4MoveEES8_S8_EENS_4pairIT2_T4_EESA_T3_SB_, symObjAddr: 0x842C, symBinAddr: 0x100009684, symSize: 0x64 }
  - { offsetInCU: 0xB92B, offset: 0xB92B, size: 0x8, addend: 0x0, symName: __ZNSt3__121__unwrap_and_dispatchB8ue170006INS_10__overloadINS_11__move_loopINS_17_ClassicAlgPolicyEEENS_14__move_trivialEEENS_16reverse_iteratorIP4MoveEESA_SA_Li0EEENS_4pairIT0_T2_EESC_T1_SD_, symObjAddr: 0x8490, symBinAddr: 0x1000096E8, symSize: 0x12C }
  - { offsetInCU: 0xB9BB, offset: 0xB9BB, size: 0x8, addend: 0x0, symName: __ZNSt3__114__unwrap_rangeB8ue170006INS_16reverse_iteratorIP4MoveEES4_EENS_4pairIT0_S6_EET_S8_, symObjAddr: 0x85BC, symBinAddr: 0x100009814, symSize: 0x84 }
  - { offsetInCU: 0xBADB, offset: 0xBADB, size: 0x8, addend: 0x0, symName: __ZNSt3__113__unwrap_iterB8ue170006INS_16reverse_iteratorIP4MoveEENS_18__unwrap_iter_implIS4_Lb0EEELi0EEEDTclsrT0_8__unwrapclsr3stdE7declvalIT_EEEES8_, symObjAddr: 0x86DC, symBinAddr: 0x100009934, symSize: 0x44 }
  - { offsetInCU: 0xBB1F, offset: 0xBB1F, size: 0x8, addend: 0x0, symName: __ZNSt3__19make_pairB8ue170006INS_16reverse_iteratorIP4MoveEES4_EENS_4pairINS_18__unwrap_ref_decayIT_E4typeENS6_IT0_E4typeEEEOS7_OSA_, symObjAddr: 0x8720, symBinAddr: 0x100009978, symSize: 0x38 }
  - { offsetInCU: 0xBB6E, offset: 0xBB6E, size: 0x8, addend: 0x0, symName: __ZNSt3__114__rewrap_rangeB8ue170006INS_16reverse_iteratorIP4MoveEES4_EET_S5_T0_, symObjAddr: 0x8758, symBinAddr: 0x1000099B0, symSize: 0x5C }
  - { offsetInCU: 0xBBBA, offset: 0xBBBA, size: 0x8, addend: 0x0, symName: __ZNSt3__113__rewrap_iterB8ue170006INS_16reverse_iteratorIP4MoveEES4_NS_18__unwrap_iter_implIS4_Lb0EEEEET_S7_T0_, symObjAddr: 0x87B4, symBinAddr: 0x100009A0C, symSize: 0x74 }
  - { offsetInCU: 0xBC0F, offset: 0xBC0F, size: 0x8, addend: 0x0, symName: __ZNSt3__1neB8ue170006IP4MoveS2_EEbRKNS_16reverse_iteratorIT_EERKNS3_IT0_EE, symObjAddr: 0x8828, symBinAddr: 0x100009A80, symSize: 0x48 }
  - { offsetInCU: 0xC077, offset: 0xC077, size: 0x8, addend: 0x0, symName: __ZSt28__throw_bad_array_new_lengthB8ue170006v, symObjAddr: 0x4B70, symBinAddr: 0x100005DC8, symSize: 0x34 }
  - { offsetInCU: 0xC7EA, offset: 0xC7EA, size: 0x8, addend: 0x0, symName: __ZN4Game11dealNewGameEv, symObjAddr: 0x670, symBinAddr: 0x1000018C8, symSize: 0x408 }
  - { offsetInCU: 0xC80F, offset: 0xC80F, size: 0x8, addend: 0x0, symName: __ZZN4Game11dealNewGameEvE3rng, symObjAddr: 0x46F08, symBinAddr: 0x100018008, symSize: 0x0 }
  - { offsetInCU: 0xCCB4, offset: 0xCCB4, size: 0x8, addend: 0x0, symName: __ZNSt3__16vectorI4CardNS_9allocatorIS1_EEE26__swap_out_circular_bufferERNS_14__split_bufferIS1_RS3_EEPS1_, symObjAddr: 0x3BCC, symBinAddr: 0x100004E24, symSize: 0x14C }
  - { offsetInCU: 0xCD28, offset: 0xCD28, size: 0x8, addend: 0x0, symName: __ZNSt3__16vectorI4CardNS_9allocatorIS1_EEE26__swap_out_circular_bufferERNS_14__split_bufferIS1_RS3_EE, symObjAddr: 0x6704, symBinAddr: 0x10000795C, symSize: 0x110 }
  - { offsetInCU: 0xCD92, offset: 0xCD92, size: 0x8, addend: 0x0, symName: __ZNSt3__124uniform_int_distributionIlEclINS_23mersenne_twister_engineIjLm32ELm624ELm397ELm31ELj2567483615ELm11ELj4294967295ELm7ELj2636928640ELm15ELj4022730752ELm18ELj1812433253EEEEElRT_RKNS1_10param_typeE, symObjAddr: 0x6B6C, symBinAddr: 0x100007DC4, symSize: 0x174 }
  - { offsetInCU: 0xCE44, offset: 0xCE44, size: 0x8, addend: 0x0, symName: __ZNSt3__16vectorI4MoveNS_9allocatorIS1_EEE26__swap_out_circular_bufferERNS_14__split_bufferIS1_RS3_EE, symObjAddr: 0x7B68, symBinAddr: 0x100008DC0, symSize: 0x110 }
  - { offsetInCU: 0xF209, offset: 0xF209, size: 0x8, addend: 0x0, symName: __ZN4Game12printTableauEi, symObjAddr: 0x0, symBinAddr: 0x100001258, symSize: 0xE0 }
  - { offsetInCU: 0xF25A, offset: 0xF25A, size: 0x8, addend: 0x0, symName: __ZNSt3__15arrayINS_6vectorI4CardNS_9allocatorIS2_EEEELm7EEixB8ue170006Em, symObjAddr: 0x128, symBinAddr: 0x100001380, symSize: 0x28 }
  - { offsetInCU: 0xF28D, offset: 0xF28D, size: 0x8, addend: 0x0, symName: __ZNKSt3__16vectorI4CardNS_9allocatorIS1_EEE4sizeB8ue170006Ev, symObjAddr: 0x150, symBinAddr: 0x1000013A8, symSize: 0x28 }
  - { offsetInCU: 0xF2B2, offset: 0xF2B2, size: 0x8, addend: 0x0, symName: __ZNSt3__16vectorI4CardNS_9allocatorIS1_EEEixB8ue170006Em, symObjAddr: 0x178, symBinAddr: 0x1000013D0, symSize: 0x2C }
  - { offsetInCU: 0xF2E8, offset: 0xF2E8, size: 0x8, addend: 0x0, symName: __ZNK4Card8getValueEv, symObjAddr: 0x1A4, symBinAddr: 0x1000013FC, symSize: 0x18 }
  - { offsetInCU: 0xF30D, offset: 0xF30D, size: 0x8, addend: 0x0, symName: __ZNK4Card7getSuitEv, symObjAddr: 0x1BC, symBinAddr: 0x100001414, symSize: 0x18 }
  - { offsetInCU: 0xF331, offset: 0xF331, size: 0x8, addend: 0x0, symName: __ZN4Game14resetStockpileEv, symObjAddr: 0x1D4, symBinAddr: 0x10000142C, symSize: 0x110 }
  - { offsetInCU: 0xF374, offset: 0xF374, size: 0x8, addend: 0x0, symName: __ZNKSt3__16vectorI4CardNS_9allocatorIS1_EEE5emptyB8ue170006Ev, symObjAddr: 0x2E4, symBinAddr: 0x10000153C, symSize: 0x28 }
  - { offsetInCU: 0xF399, offset: 0xF399, size: 0x8, addend: 0x0, symName: __ZNSt3__113basic_ostreamIcNS_11char_traitsIcEEElsB8ue170006EPFRS3_S4_E, symObjAddr: 0x30C, symBinAddr: 0x100001564, symSize: 0x2C }
  - { offsetInCU: 0xF3CC, offset: 0xF3CC, size: 0x8, addend: 0x0, symName: __ZNSt3__16vectorI4CardNS_9allocatorIS1_EEE4backB8ue170006Ev, symObjAddr: 0x390, symBinAddr: 0x1000015E8, symSize: 0x1C }
  - { offsetInCU: 0xF3F1, offset: 0xF3F1, size: 0x8, addend: 0x0, symName: __ZN4Card11setLocationE8Location, symObjAddr: 0x3AC, symBinAddr: 0x100001604, symSize: 0x20 }
  - { offsetInCU: 0xF424, offset: 0xF424, size: 0x8, addend: 0x0, symName: __ZNSt3__16vectorI4CardNS_9allocatorIS1_EEE6insertENS_11__wrap_iterIPKS1_EERS6_, symObjAddr: 0x3CC, symBinAddr: 0x100001624, symSize: 0x20C }
  - { offsetInCU: 0xF4BA, offset: 0xF4BA, size: 0x8, addend: 0x0, symName: __ZNSt3__16vectorI4CardNS_9allocatorIS1_EEE3endB8ue170006Ev, symObjAddr: 0x5D8, symBinAddr: 0x100001830, symSize: 0x30 }
  - { offsetInCU: 0xF4EB, offset: 0xF4EB, size: 0x8, addend: 0x0, symName: __ZNSt3__111__wrap_iterIPK4CardEC1B8ue170006IPS1_EERKNS0_IT_EEPNS_9enable_ifIXsr14is_convertibleIS7_S3_EE5valueEvE4typeE, symObjAddr: 0x608, symBinAddr: 0x100001860, symSize: 0x3C }
  - { offsetInCU: 0xF535, offset: 0xF535, size: 0x8, addend: 0x0, symName: __ZNSt3__16vectorI4CardNS_9allocatorIS1_EEE8pop_backEv, symObjAddr: 0x644, symBinAddr: 0x10000189C, symSize: 0x2C }
  - { offsetInCU: 0xF55C, offset: 0xF55C, size: 0x8, addend: 0x0, symName: __ZNSt3__16vectorI4CardNS_9allocatorIS1_EEE5clearB8ue170006Ev, symObjAddr: 0xA78, symBinAddr: 0x100001CD0, symSize: 0x44 }
  - { offsetInCU: 0xF590, offset: 0xF590, size: 0x8, addend: 0x0, symName: __ZNKSt3__16vectorI4MoveNS_9allocatorIS1_EEE5emptyB8ue170006Ev, symObjAddr: 0xABC, symBinAddr: 0x100001D14, symSize: 0x28 }
  - { offsetInCU: 0xF5B5, offset: 0xF5B5, size: 0x8, addend: 0x0, symName: __ZNSt3__16vectorI4MoveNS_9allocatorIS1_EEE5clearB8ue170006Ev, symObjAddr: 0xAE4, symBinAddr: 0x100001D3C, symSize: 0x44 }
  - { offsetInCU: 0xF5E9, offset: 0xF5E9, size: 0x8, addend: 0x0, symName: __ZNKSt3__15arrayINS_6vectorI4CardNS_9allocatorIS2_EEEELm4EE5emptyB8ue170006Ev, symObjAddr: 0xB28, symBinAddr: 0x100001D80, symSize: 0x18 }
  - { offsetInCU: 0xF60E, offset: 0xF60E, size: 0x8, addend: 0x0, symName: __ZNSt3__15arrayINS_6vectorI4CardNS_9allocatorIS2_EEEELm4EEixB8ue170006Em, symObjAddr: 0xB40, symBinAddr: 0x100001D98, symSize: 0x28 }
  - { offsetInCU: 0xF641, offset: 0xF641, size: 0x8, addend: 0x0, symName: __ZNKSt3__15arrayINS_6vectorI4CardNS_9allocatorIS2_EEEELm7EE5emptyB8ue170006Ev, symObjAddr: 0xB68, symBinAddr: 0x100001DC0, symSize: 0x18 }
  - { offsetInCU: 0xF666, offset: 0xF666, size: 0x8, addend: 0x0, symName: __ZNSt3__16vectorI4CardNS_9allocatorIS1_EEE9push_backB8ue170006EOS1_, symObjAddr: 0xB80, symBinAddr: 0x100001DD8, symSize: 0x6C }
  - { offsetInCU: 0xF69C, offset: 0xF69C, size: 0x8, addend: 0x0, symName: __ZN4CardC1E4Suit5Valueb8Locationb, symObjAddr: 0xBEC, symBinAddr: 0x100001E44, symSize: 0x68 }
  - { offsetInCU: 0xF724, offset: 0xF724, size: 0x8, addend: 0x0, symName: __ZNSt3__113random_deviceC1B8ue170006Ev, symObjAddr: 0xC54, symBinAddr: 0x100001EAC, symSize: 0x74 }
  - { offsetInCU: 0xF74D, offset: 0xF74D, size: 0x8, addend: 0x0, symName: __ZNSt3__123mersenne_twister_engineIjLm32ELm624ELm397ELm31ELj2567483615ELm11ELj4294967295ELm7ELj2636928640ELm15ELj4022730752ELm18ELj1812433253EEC1B8ue170006Ej, symObjAddr: 0xCC8, symBinAddr: 0x100001F20, symSize: 0x34 }
  - { offsetInCU: 0xF784, offset: 0xF784, size: 0x8, addend: 0x0, symName: __ZNSt3__16vectorI4CardNS_9allocatorIS1_EEE5beginB8ue170006Ev, symObjAddr: 0xD44, symBinAddr: 0x100001F9C, symSize: 0x30 }
  - { offsetInCU: 0xF7AB, offset: 0xF7AB, size: 0x8, addend: 0x0, symName: __ZNSt3__16vectorI4CardNS_9allocatorIS1_EEE9push_backB8ue170006ERKS1_, symObjAddr: 0xD74, symBinAddr: 0x100001FCC, symSize: 0x6C }
  - { offsetInCU: 0xF7E1, offset: 0xF7E1, size: 0x8, addend: 0x0, symName: __ZN4Card9setFaceUpEb, symObjAddr: 0xDE0, symBinAddr: 0x100002038, symSize: 0x2C }
  - { offsetInCU: 0xF814, offset: 0xF814, size: 0x8, addend: 0x0, symName: __ZN4Card14setTableauPileEi, symObjAddr: 0xE0C, symBinAddr: 0x100002064, symSize: 0x20 }
  - { offsetInCU: 0xF847, offset: 0xF847, size: 0x8, addend: 0x0, symName: __ZN4Card15setTableauIndexEi, symObjAddr: 0xE2C, symBinAddr: 0x100002084, symSize: 0x20 }
  - { offsetInCU: 0xF879, offset: 0xF879, size: 0x8, addend: 0x0, symName: __ZN4Game15dealFromReserveEv, symObjAddr: 0xE4C, symBinAddr: 0x1000020A4, symSize: 0x11C }
  - { offsetInCU: 0xF8BD, offset: 0xF8BD, size: 0x8, addend: 0x0, symName: __ZN4MoveC1E4Card8LocationS1_ii, symObjAddr: 0xF68, symBinAddr: 0x1000021C0, symSize: 0x54 }
  - { offsetInCU: 0xF92C, offset: 0xF92C, size: 0x8, addend: 0x0, symName: __ZN4Game7logMoveE4Card4Move, symObjAddr: 0xFBC, symBinAddr: 0x100002214, symSize: 0xBC }
  - { offsetInCU: 0xF97F, offset: 0xF97F, size: 0x8, addend: 0x0, symName: __ZN4Game13pushToTableauERK4Move4CardRNSt3__16vectorIS3_NS4_9allocatorIS3_EEEE, symObjAddr: 0x1078, symBinAddr: 0x1000022D0, symSize: 0xEC }
  - { offsetInCU: 0xF9D1, offset: 0xF9D1, size: 0x8, addend: 0x0, symName: __ZNK4Move7getPileEv, symObjAddr: 0x1164, symBinAddr: 0x1000023BC, symSize: 0x18 }
  - { offsetInCU: 0xF9F6, offset: 0xF9F6, size: 0x8, addend: 0x0, symName: __ZN4Card16setFoudationPileEi, symObjAddr: 0x117C, symBinAddr: 0x1000023D4, symSize: 0x20 }
  - { offsetInCU: 0xFA28, offset: 0xFA28, size: 0x8, addend: 0x0, symName: __ZN4Game15pushToStockpileERK4Move4CardRNSt3__16vectorIS3_NS4_9allocatorIS3_EEEE, symObjAddr: 0x119C, symBinAddr: 0x1000023F4, symSize: 0xB4 }
  - { offsetInCU: 0xFA7A, offset: 0xFA7A, size: 0x8, addend: 0x0, symName: __ZNK4Move19getStartingPositionEv, symObjAddr: 0x1250, symBinAddr: 0x1000024A8, symSize: 0x18 }
  - { offsetInCU: 0xFA9F, offset: 0xFA9F, size: 0x8, addend: 0x0, symName: __ZNK4Move14getDestinationEv, symObjAddr: 0x1268, symBinAddr: 0x1000024C0, symSize: 0x18 }
  - { offsetInCU: 0xFAC4, offset: 0xFAC4, size: 0x8, addend: 0x0, symName: __ZNK4Move15getStartingPileEv, symObjAddr: 0x1280, symBinAddr: 0x1000024D8, symSize: 0x18 }
  - { offsetInCU: 0xFAE9, offset: 0xFAE9, size: 0x8, addend: 0x0, symName: __ZNSt3__16vectorI4MoveNS_9allocatorIS1_EEE9push_backB8ue170006ERKS1_, symObjAddr: 0x1298, symBinAddr: 0x1000024F0, symSize: 0x6C }
  - { offsetInCU: 0xFB1E, offset: 0xFB1E, size: 0x8, addend: 0x0, symName: __ZN4Game15FoundationLogicERK4MoveRK4CardRNSt3__16vectorIS3_NS6_9allocatorIS3_EEEEb, symObjAddr: 0x1304, symBinAddr: 0x10000255C, symSize: 0x284 }
  - { offsetInCU: 0xFC0C, offset: 0xFC0C, size: 0x8, addend: 0x0, symName: __ZN4Game21TableauToTableauLogicERK4MoveRK4Cardb, symObjAddr: 0x1588, symBinAddr: 0x1000027E0, symSize: 0x6CC }
  - { offsetInCU: 0xFD9B, offset: 0xFD9B, size: 0x8, addend: 0x0, symName: __ZNK4Card14getTableauPileEv, symObjAddr: 0x1C54, symBinAddr: 0x100002EAC, symSize: 0x18 }
  - { offsetInCU: 0xFDC0, offset: 0xFDC0, size: 0x8, addend: 0x0, symName: __ZNK4Card15getTableauIndexEv, symObjAddr: 0x1C6C, symBinAddr: 0x100002EC4, symSize: 0x18 }
  - { offsetInCU: 0xFDE4, offset: 0xFDE4, size: 0x8, addend: 0x0, symName: __ZN4Game9applyMoveERK4Moveb, symObjAddr: 0x1C84, symBinAddr: 0x100002EDC, symSize: 0x9FC }
  - { offsetInCU: 0xFFA4, offset: 0xFFA4, size: 0x8, addend: 0x0, symName: __ZNK4Move7getCardEv, symObjAddr: 0x2680, symBinAddr: 0x1000038D8, symSize: 0x18 }
  - { offsetInCU: 0xFFC9, offset: 0xFFC9, size: 0x8, addend: 0x0, symName: __ZNK4Card17getFoundationPileEv, symObjAddr: 0x2698, symBinAddr: 0x1000038F0, symSize: 0x18 }
  - { offsetInCU: 0xFFEE, offset: 0xFFEE, size: 0x8, addend: 0x0, symName: __ZN4Game4undoEv, symObjAddr: 0x26B0, symBinAddr: 0x100003908, symSize: 0x1A8 }
  - { offsetInCU: 0x1007F, offset: 0x1007F, size: 0x8, addend: 0x0, symName: __ZNSt3__16vectorI4MoveNS_9allocatorIS1_EEE4backB8ue170006Ev, symObjAddr: 0x2858, symBinAddr: 0x100003AB0, symSize: 0x1C }
  - { offsetInCU: 0x100A4, offset: 0x100A4, size: 0x8, addend: 0x0, symName: __ZNSt3__16vectorI4MoveNS_9allocatorIS1_EEE8pop_backEv, symObjAddr: 0x2874, symBinAddr: 0x100003ACC, symSize: 0x2C }
  - { offsetInCU: 0x100CB, offset: 0x100CB, size: 0x8, addend: 0x0, symName: __ZNSt3__111__wrap_iterIPK4CardEC2B8ue170006IPS1_EERKNS0_IT_EEPNS_9enable_ifIXsr14is_convertibleIS7_S3_EE5valueEvE4typeE, symObjAddr: 0x28A0, symBinAddr: 0x100003AF8, symSize: 0x40 }
  - { offsetInCU: 0x10115, offset: 0x10115, size: 0x8, addend: 0x0, symName: __ZNKSt3__111__wrap_iterIP4CardE4baseB8ue170006Ev, symObjAddr: 0x28E0, symBinAddr: 0x100003B38, symSize: 0x18 }
  - { offsetInCU: 0x1013A, offset: 0x1013A, size: 0x8, addend: 0x0, symName: __ZN4CardC2E4Suit5Valueb8Locationb, symObjAddr: 0x28F8, symBinAddr: 0x100003B50, symSize: 0x74 }
  - { offsetInCU: 0x101AE, offset: 0x101AE, size: 0x8, addend: 0x0, symName: __ZNSt3__112basic_stringIcNS_11char_traitsIcEENS_9allocatorIcEEEC1B8ue170006ILi0EEEPKc, symObjAddr: 0x296C, symBinAddr: 0x100003BC4, symSize: 0x34 }
  - { offsetInCU: 0x101EC, offset: 0x101EC, size: 0x8, addend: 0x0, symName: __ZNSt3__112basic_stringIcNS_11char_traitsIcEENS_9allocatorIcEEEC2B8ue170006ILi0EEEPKc, symObjAddr: 0x29A0, symBinAddr: 0x100003BF8, symSize: 0x58 }
  - { offsetInCU: 0x1022F, offset: 0x1022F, size: 0x8, addend: 0x0, symName: __ZNSt3__117__compressed_pairINS_12basic_stringIcNS_11char_traitsIcEENS_9allocatorIcEEE5__repES5_EC1B8ue170006INS_18__default_init_tagESA_EEOT_OT0_, symObjAddr: 0x29F8, symBinAddr: 0x100003C50, symSize: 0x3C }
  - { offsetInCU: 0x10286, offset: 0x10286, size: 0x8, addend: 0x0, symName: __ZNSt3__111char_traitsIcE6lengthB8ue170006EPKc, symObjAddr: 0x2A34, symBinAddr: 0x100003C8C, symSize: 0x34 }
  - { offsetInCU: 0x102A9, offset: 0x102A9, size: 0x8, addend: 0x0, symName: __ZNSt3__117__compressed_pairINS_12basic_stringIcNS_11char_traitsIcEENS_9allocatorIcEEE5__repES5_EC2B8ue170006INS_18__default_init_tagESA_EEOT_OT0_, symObjAddr: 0x2A68, symBinAddr: 0x100003CC0, symSize: 0x3C }
  - { offsetInCU: 0x10300, offset: 0x10300, size: 0x8, addend: 0x0, symName: __ZNSt3__122__compressed_pair_elemINS_12basic_stringIcNS_11char_traitsIcEENS_9allocatorIcEEE5__repELi0ELb0EEC2B8ue170006ENS_18__default_init_tagE, symObjAddr: 0x2AA4, symBinAddr: 0x100003CFC, symSize: 0x14 }
  - { offsetInCU: 0x10333, offset: 0x10333, size: 0x8, addend: 0x0, symName: __ZNSt3__122__compressed_pair_elemINS_9allocatorIcEELi1ELb1EEC2B8ue170006ENS_18__default_init_tagE, symObjAddr: 0x2AB8, symBinAddr: 0x100003D10, symSize: 0x2C }
  - { offsetInCU: 0x10366, offset: 0x10366, size: 0x8, addend: 0x0, symName: __ZNSt3__19allocatorIcEC2B8ue170006Ev, symObjAddr: 0x2AE4, symBinAddr: 0x100003D3C, symSize: 0x2C }
  - { offsetInCU: 0x1038F, offset: 0x1038F, size: 0x8, addend: 0x0, symName: __ZNSt3__116__non_trivial_ifILb1ENS_9allocatorIcEEEC2B8ue170006Ev, symObjAddr: 0x2B10, symBinAddr: 0x100003D68, symSize: 0x14 }
  - { offsetInCU: 0x103B8, offset: 0x103B8, size: 0x8, addend: 0x0, symName: __ZN4MoveC2E4Card8LocationS1_ii, symObjAddr: 0x2B54, symBinAddr: 0x100003DAC, symSize: 0x5C }
  - { offsetInCU: 0x10446, offset: 0x10446, size: 0x8, addend: 0x0, symName: __ZNKSt3__113basic_ostreamIcNS_11char_traitsIcEEE6sentrycvbB8ue170006Ev, symObjAddr: 0x2D9C, symBinAddr: 0x100003FF4, symSize: 0x1C }
  - { offsetInCU: 0x1046B, offset: 0x1046B, size: 0x8, addend: 0x0, symName: __ZNSt3__119ostreambuf_iteratorIcNS_11char_traitsIcEEEC1B8ue170006ERNS_13basic_ostreamIcS2_EE, symObjAddr: 0x2FF8, symBinAddr: 0x100004250, symSize: 0x34 }
  - { offsetInCU: 0x104A2, offset: 0x104A2, size: 0x8, addend: 0x0, symName: __ZNKSt3__18ios_base5flagsB8ue170006Ev, symObjAddr: 0x302C, symBinAddr: 0x100004284, symSize: 0x18 }
  - { offsetInCU: 0x104C9, offset: 0x104C9, size: 0x8, addend: 0x0, symName: __ZNKSt3__19basic_iosIcNS_11char_traitsIcEEE4fillB8ue170006Ev, symObjAddr: 0x3044, symBinAddr: 0x10000429C, symSize: 0x64 }
  - { offsetInCU: 0x104F0, offset: 0x104F0, size: 0x8, addend: 0x0, symName: __ZNKSt3__119ostreambuf_iteratorIcNS_11char_traitsIcEEE6failedB8ue170006Ev, symObjAddr: 0x30A8, symBinAddr: 0x100004300, symSize: 0x24 }
  - { offsetInCU: 0x10515, offset: 0x10515, size: 0x8, addend: 0x0, symName: __ZNSt3__19basic_iosIcNS_11char_traitsIcEEE8setstateB8ue170006Ej, symObjAddr: 0x30CC, symBinAddr: 0x100004324, symSize: 0x2C }
  - { offsetInCU: 0x10549, offset: 0x10549, size: 0x8, addend: 0x0, symName: __ZNKSt3__18ios_base5widthB8ue170006Ev, symObjAddr: 0x30F8, symBinAddr: 0x100004350, symSize: 0x18 }
  - { offsetInCU: 0x10570, offset: 0x10570, size: 0x8, addend: 0x0, symName: __ZNSt3__115basic_streambufIcNS_11char_traitsIcEEE5sputnB8ue170006EPKcl, symObjAddr: 0x3110, symBinAddr: 0x100004368, symSize: 0x3C }
  - { offsetInCU: 0x105B1, offset: 0x105B1, size: 0x8, addend: 0x0, symName: __ZNSt3__112basic_stringIcNS_11char_traitsIcEENS_9allocatorIcEEEC1B8ue170006Emc, symObjAddr: 0x314C, symBinAddr: 0x1000043A4, symSize: 0x3C }
  - { offsetInCU: 0x105F8, offset: 0x105F8, size: 0x8, addend: 0x0, symName: __ZNSt3__112basic_stringIcNS_11char_traitsIcEENS_9allocatorIcEEE4dataB8ue170006Ev, symObjAddr: 0x3188, symBinAddr: 0x1000043E0, symSize: 0x28 }
  - { offsetInCU: 0x1061D, offset: 0x1061D, size: 0x8, addend: 0x0, symName: __ZNSt3__18ios_base5widthB8ue170006El, symObjAddr: 0x31B0, symBinAddr: 0x100004408, symSize: 0x2C }
  - { offsetInCU: 0x10662, offset: 0x10662, size: 0x8, addend: 0x0, symName: __ZNSt3__112basic_stringIcNS_11char_traitsIcEENS_9allocatorIcEEEC2B8ue170006Emc, symObjAddr: 0x31DC, symBinAddr: 0x100004434, symSize: 0x4C }
  - { offsetInCU: 0x106A9, offset: 0x106A9, size: 0x8, addend: 0x0, symName: __ZNSt3__112basic_stringIcNS_11char_traitsIcEENS_9allocatorIcEEE13__get_pointerB8ue170006Ev, symObjAddr: 0x323C, symBinAddr: 0x100004494, symSize: 0x54 }
  - { offsetInCU: 0x106CE, offset: 0x106CE, size: 0x8, addend: 0x0, symName: __ZNKSt3__112basic_stringIcNS_11char_traitsIcEENS_9allocatorIcEEE9__is_longB8ue170006Ev, symObjAddr: 0x3290, symBinAddr: 0x1000044E8, symSize: 0x38 }
  - { offsetInCU: 0x106F3, offset: 0x106F3, size: 0x8, addend: 0x0, symName: __ZNSt3__112basic_stringIcNS_11char_traitsIcEENS_9allocatorIcEEE18__get_long_pointerB8ue170006Ev, symObjAddr: 0x32C8, symBinAddr: 0x100004520, symSize: 0x28 }
  - { offsetInCU: 0x10718, offset: 0x10718, size: 0x8, addend: 0x0, symName: __ZNSt3__112basic_stringIcNS_11char_traitsIcEENS_9allocatorIcEEE19__get_short_pointerB8ue170006Ev, symObjAddr: 0x32F0, symBinAddr: 0x100004548, symSize: 0x28 }
  - { offsetInCU: 0x1073D, offset: 0x1073D, size: 0x8, addend: 0x0, symName: __ZNKSt3__117__compressed_pairINS_12basic_stringIcNS_11char_traitsIcEENS_9allocatorIcEEE5__repES5_E5firstB8ue170006Ev, symObjAddr: 0x3318, symBinAddr: 0x100004570, symSize: 0x24 }
  - { offsetInCU: 0x10762, offset: 0x10762, size: 0x8, addend: 0x0, symName: __ZNKSt3__122__compressed_pair_elemINS_12basic_stringIcNS_11char_traitsIcEENS_9allocatorIcEEE5__repELi0ELb0EE5__getB8ue170006Ev, symObjAddr: 0x333C, symBinAddr: 0x100004594, symSize: 0x14 }
  - { offsetInCU: 0x10787, offset: 0x10787, size: 0x8, addend: 0x0, symName: __ZNSt3__117__compressed_pairINS_12basic_stringIcNS_11char_traitsIcEENS_9allocatorIcEEE5__repES5_E5firstB8ue170006Ev, symObjAddr: 0x3350, symBinAddr: 0x1000045A8, symSize: 0x24 }
  - { offsetInCU: 0x107AC, offset: 0x107AC, size: 0x8, addend: 0x0, symName: __ZNSt3__122__compressed_pair_elemINS_12basic_stringIcNS_11char_traitsIcEENS_9allocatorIcEEE5__repELi0ELb0EE5__getB8ue170006Ev, symObjAddr: 0x3374, symBinAddr: 0x1000045CC, symSize: 0x14 }
  - { offsetInCU: 0x107D1, offset: 0x107D1, size: 0x8, addend: 0x0, symName: __ZNSt3__114pointer_traitsIPcE10pointer_toB8ue170006ERc, symObjAddr: 0x3388, symBinAddr: 0x1000045E0, symSize: 0x14 }
  - { offsetInCU: 0x107F4, offset: 0x107F4, size: 0x8, addend: 0x0, symName: __ZNSt3__119ostreambuf_iteratorIcNS_11char_traitsIcEEEC2B8ue170006ERNS_13basic_ostreamIcS2_EE, symObjAddr: 0x339C, symBinAddr: 0x1000045F4, symSize: 0x54 }
  - { offsetInCU: 0x1082B, offset: 0x1082B, size: 0x8, addend: 0x0, symName: __ZNKSt3__19basic_iosIcNS_11char_traitsIcEEE5rdbufB8ue170006Ev, symObjAddr: 0x33F0, symBinAddr: 0x100004648, symSize: 0x24 }
  - { offsetInCU: 0x10852, offset: 0x10852, size: 0x8, addend: 0x0, symName: __ZNKSt3__18ios_base5rdbufB8ue170006Ev, symObjAddr: 0x3414, symBinAddr: 0x10000466C, symSize: 0x18 }
  - { offsetInCU: 0x10877, offset: 0x10877, size: 0x8, addend: 0x0, symName: __ZNSt3__111char_traitsIcE11eq_int_typeB8ue170006Eii, symObjAddr: 0x342C, symBinAddr: 0x100004684, symSize: 0x28 }
  - { offsetInCU: 0x108AA, offset: 0x108AA, size: 0x8, addend: 0x0, symName: __ZNSt3__111char_traitsIcE3eofB8ue170006Ev, symObjAddr: 0x3454, symBinAddr: 0x1000046AC, symSize: 0x8 }
  - { offsetInCU: 0x108BE, offset: 0x108BE, size: 0x8, addend: 0x0, symName: __ZNKSt3__19basic_iosIcNS_11char_traitsIcEEE5widenB8ue170006Ec, symObjAddr: 0x345C, symBinAddr: 0x1000046B4, symSize: 0x84 }
  - { offsetInCU: 0x10926, offset: 0x10926, size: 0x8, addend: 0x0, symName: __ZNKSt3__15ctypeIcE5widenB8ue170006Ec, symObjAddr: 0x350C, symBinAddr: 0x100004764, symSize: 0x38 }
  - { offsetInCU: 0x1095A, offset: 0x1095A, size: 0x8, addend: 0x0, symName: __ZNSt3__18ios_base8setstateB8ue170006Ej, symObjAddr: 0x3544, symBinAddr: 0x10000479C, symSize: 0x34 }
  - { offsetInCU: 0x10990, offset: 0x10990, size: 0x8, addend: 0x0, symName: __ZNSt3__16vectorI4CardNS_9allocatorIS1_EEE11__make_iterB8ue170006EPS1_, symObjAddr: 0x3578, symBinAddr: 0x1000047D0, symSize: 0x30 }
  - { offsetInCU: 0x109C4, offset: 0x109C4, size: 0x8, addend: 0x0, symName: __ZNSt3__111__wrap_iterIP4CardEC1B8ue170006ES2_, symObjAddr: 0x35A8, symBinAddr: 0x100004800, symSize: 0x34 }
  - { offsetInCU: 0x109FB, offset: 0x109FB, size: 0x8, addend: 0x0, symName: __ZNSt3__111__wrap_iterIP4CardEC2B8ue170006ES2_, symObjAddr: 0x35DC, symBinAddr: 0x100004834, symSize: 0x20 }
  - { offsetInCU: 0x10A32, offset: 0x10A32, size: 0x8, addend: 0x0, symName: __ZNSt3__16vectorI4CardNS_9allocatorIS1_EEE9__end_capB8ue170006Ev, symObjAddr: 0x3644, symBinAddr: 0x10000489C, symSize: 0x28 }
  - { offsetInCU: 0x10A57, offset: 0x10A57, size: 0x8, addend: 0x0, symName: __ZNSt3__16vectorI4CardNS_9allocatorIS1_EEE22__construct_one_at_endB8ue170006IJRKS1_EEEvDpOT_, symObjAddr: 0x366C, symBinAddr: 0x1000048C4, symSize: 0x90 }
  - { offsetInCU: 0x10AA5, offset: 0x10AA5, size: 0x8, addend: 0x0, symName: __ZNSt3__16vectorI4CardNS_9allocatorIS1_EEE12__move_rangeEPS1_S5_S5_, symObjAddr: 0x36FC, symBinAddr: 0x100004954, symSize: 0x13C }
  - { offsetInCU: 0x10B60, offset: 0x10B60, size: 0x8, addend: 0x0, symName: __ZNSt3__114pointer_traitsIPK4CardE10pointer_toB8ue170006ERS2_, symObjAddr: 0x3838, symBinAddr: 0x100004A90, symSize: 0x14 }
  - { offsetInCU: 0x10B83, offset: 0x10B83, size: 0x8, addend: 0x0, symName: __ZNSt3__16vectorI4CardNS_9allocatorIS1_EEE7__allocB8ue170006Ev, symObjAddr: 0x384C, symBinAddr: 0x100004AA4, symSize: 0x28 }
  - { offsetInCU: 0x10BA8, offset: 0x10BA8, size: 0x8, addend: 0x0, symName: __ZNKSt3__16vectorI4CardNS_9allocatorIS1_EEE11__recommendB8ue170006Em, symObjAddr: 0x3874, symBinAddr: 0x100004ACC, symSize: 0xB4 }
  - { offsetInCU: 0x10BFC, offset: 0x10BFC, size: 0x8, addend: 0x0, symName: __ZNSt3__114__split_bufferI4CardRNS_9allocatorIS1_EEEC1EmmS4_, symObjAddr: 0x3928, symBinAddr: 0x100004B80, symSize: 0x44 }
  - { offsetInCU: 0x10C51, offset: 0x10C51, size: 0x8, addend: 0x0, symName: __ZNSt3__114__split_bufferI4CardRNS_9allocatorIS1_EEE9push_backB8ue170006ERKS1_, symObjAddr: 0x396C, symBinAddr: 0x100004BC4, symSize: 0x260 }
  - { offsetInCU: 0x10CC8, offset: 0x10CC8, size: 0x8, addend: 0x0, symName: __ZNSt3__114__split_bufferI4CardRNS_9allocatorIS1_EEED1Ev, symObjAddr: 0x3D18, symBinAddr: 0x100004F70, symSize: 0x2C }
  - { offsetInCU: 0x10CF3, offset: 0x10CF3, size: 0x8, addend: 0x0, symName: __ZNKSt3__111__wrap_iterIPK4CardE4baseB8ue170006Ev, symObjAddr: 0x3D44, symBinAddr: 0x100004F9C, symSize: 0x18 }
  - { offsetInCU: 0x10D18, offset: 0x10D18, size: 0x8, addend: 0x0, symName: __ZNSt3__117__compressed_pairIP4CardNS_9allocatorIS1_EEE5firstB8ue170006Ev, symObjAddr: 0x3D5C, symBinAddr: 0x100004FB4, symSize: 0x24 }
  - { offsetInCU: 0x10D3D, offset: 0x10D3D, size: 0x8, addend: 0x0, symName: __ZNSt3__122__compressed_pair_elemIP4CardLi0ELb0EE5__getB8ue170006Ev, symObjAddr: 0x3D80, symBinAddr: 0x100004FD8, symSize: 0x14 }
  - { offsetInCU: 0x10D7B, offset: 0x10D7B, size: 0x8, addend: 0x0, symName: __ZNSt3__16vectorI4CardNS_9allocatorIS1_EEE21_ConstructTransactionC1B8ue170006ERS4_m, symObjAddr: 0x3D94, symBinAddr: 0x100004FEC, symSize: 0x3C }
  - { offsetInCU: 0x10DC2, offset: 0x10DC2, size: 0x8, addend: 0x0, symName: __ZNSt3__116allocator_traitsINS_9allocatorI4CardEEE9constructB8ue170006IS2_JRKS2_EvEEvRS3_PT_DpOT0_, symObjAddr: 0x3DD0, symBinAddr: 0x100005028, symSize: 0x34 }
  - { offsetInCU: 0x10E19, offset: 0x10E19, size: 0x8, addend: 0x0, symName: __ZNSt3__16vectorI4CardNS_9allocatorIS1_EEE21_ConstructTransactionD1B8ue170006Ev, symObjAddr: 0x3E18, symBinAddr: 0x100005070, symSize: 0x2C }
  - { offsetInCU: 0x10E42, offset: 0x10E42, size: 0x8, addend: 0x0, symName: __ZNSt3__16vectorI4CardNS_9allocatorIS1_EEE21_ConstructTransactionC2B8ue170006ERS4_m, symObjAddr: 0x3E44, symBinAddr: 0x10000509C, symSize: 0x4C }
  - { offsetInCU: 0x10E89, offset: 0x10E89, size: 0x8, addend: 0x0, symName: __ZNSt3__19allocatorI4CardE9constructB8ue170006IS1_JRKS1_EEEvPT_DpOT0_, symObjAddr: 0x3E90, symBinAddr: 0x1000050E8, symSize: 0x30 }
  - { offsetInCU: 0x10EDE, offset: 0x10EDE, size: 0x8, addend: 0x0, symName: __ZNSt3__16vectorI4CardNS_9allocatorIS1_EEE21_ConstructTransactionD2B8ue170006Ev, symObjAddr: 0x3EC0, symBinAddr: 0x100005118, symSize: 0x20 }
  - { offsetInCU: 0x10F07, offset: 0x10F07, size: 0x8, addend: 0x0, symName: __ZNSt3__116allocator_traitsINS_9allocatorI4CardEEE9constructB8ue170006IS2_JS2_EvEEvRS3_PT_DpOT0_, symObjAddr: 0x3EE0, symBinAddr: 0x100005138, symSize: 0x34 }
  - { offsetInCU: 0x10F5E, offset: 0x10F5E, size: 0x8, addend: 0x0, symName: __ZNSt3__19allocatorI4CardE9constructB8ue170006IS1_JS1_EEEvPT_DpOT0_, symObjAddr: 0x3F54, symBinAddr: 0x1000051AC, symSize: 0x30 }
  - { offsetInCU: 0x10FD6, offset: 0x10FD6, size: 0x8, addend: 0x0, symName: __ZNKSt3__123__move_backward_trivialclB8ue170006I4CardS2_Li0EEENS_4pairIPT_PT0_EES5_S5_S7_, symObjAddr: 0x4120, symBinAddr: 0x100005378, symSize: 0x48 }
  - { offsetInCU: 0x1103D, offset: 0x1103D, size: 0x8, addend: 0x0, symName: __ZNSt3__14pairIP4CardS2_EC1B8ue170006IRS2_S5_LPv0EEEOT_OT0_, symObjAddr: 0x435C, symBinAddr: 0x1000055B4, symSize: 0x3C }
  - { offsetInCU: 0x1109A, offset: 0x1109A, size: 0x8, addend: 0x0, symName: __ZNSt3__14pairIP4CardS2_EC2B8ue170006IRS2_S5_LPv0EEEOT_OT0_, symObjAddr: 0x4398, symBinAddr: 0x1000055F0, symSize: 0x34 }
  - { offsetInCU: 0x110F7, offset: 0x110F7, size: 0x8, addend: 0x0, symName: __ZNSt3__118__unwrap_iter_implIP4CardLb1EE8__unwrapB8ue170006ES2_, symObjAddr: 0x43CC, symBinAddr: 0x100005624, symSize: 0x24 }
  - { offsetInCU: 0x1111F, offset: 0x1111F, size: 0x8, addend: 0x0, symName: __ZNSt3__14pairIP4CardS2_EC1B8ue170006IS2_S2_LPv0EEEOT_OT0_, symObjAddr: 0x43F0, symBinAddr: 0x100005648, symSize: 0x3C }
  - { offsetInCU: 0x1117C, offset: 0x1117C, size: 0x8, addend: 0x0, symName: __ZNSt3__14pairIP4CardS2_EC2B8ue170006IS2_S2_LPv0EEEOT_OT0_, symObjAddr: 0x442C, symBinAddr: 0x100005684, symSize: 0x34 }
  - { offsetInCU: 0x111D9, offset: 0x111D9, size: 0x8, addend: 0x0, symName: __ZNSt3__118__unwrap_iter_implIP4CardLb1EE8__rewrapB8ue170006ES2_S2_, symObjAddr: 0x4460, symBinAddr: 0x1000056B8, symSize: 0x58 }
  - { offsetInCU: 0x1120A, offset: 0x1120A, size: 0x8, addend: 0x0, symName: __ZNSt3__117__compressed_pairIP4CardNS_9allocatorIS1_EEE6secondB8ue170006Ev, symObjAddr: 0x44B8, symBinAddr: 0x100005710, symSize: 0x24 }
  - { offsetInCU: 0x1122F, offset: 0x1122F, size: 0x8, addend: 0x0, symName: __ZNSt3__122__compressed_pair_elemINS_9allocatorI4CardEELi1ELb1EE5__getB8ue170006Ev, symObjAddr: 0x44DC, symBinAddr: 0x100005734, symSize: 0x14 }
  - { offsetInCU: 0x11254, offset: 0x11254, size: 0x8, addend: 0x0, symName: __ZNKSt3__16vectorI4CardNS_9allocatorIS1_EEE8max_sizeEv, symObjAddr: 0x44F0, symBinAddr: 0x100005748, symSize: 0x60 }
  - { offsetInCU: 0x1127B, offset: 0x1127B, size: 0x8, addend: 0x0, symName: __ZNKSt3__16vectorI4CardNS_9allocatorIS1_EEE20__throw_length_errorB8ue170006Ev, symObjAddr: 0x4550, symBinAddr: 0x1000057A8, symSize: 0x1C }
  - { offsetInCU: 0x112A0, offset: 0x112A0, size: 0x8, addend: 0x0, symName: __ZNKSt3__16vectorI4CardNS_9allocatorIS1_EEE8capacityB8ue170006Ev, symObjAddr: 0x456C, symBinAddr: 0x1000057C4, symSize: 0x40 }
  - { offsetInCU: 0x112CF, offset: 0x112CF, size: 0x8, addend: 0x0, symName: __ZNSt3__116allocator_traitsINS_9allocatorI4CardEEE8max_sizeB8ue170006IS3_vEEmRKS3_, symObjAddr: 0x4604, symBinAddr: 0x10000585C, symSize: 0x24 }
  - { offsetInCU: 0x112FD, offset: 0x112FD, size: 0x8, addend: 0x0, symName: __ZNKSt3__16vectorI4CardNS_9allocatorIS1_EEE7__allocB8ue170006Ev, symObjAddr: 0x4628, symBinAddr: 0x100005880, symSize: 0x28 }
  - { offsetInCU: 0x11322, offset: 0x11322, size: 0x8, addend: 0x0, symName: __ZNSt3__114numeric_limitsIlE3maxB8ue170006Ev, symObjAddr: 0x4650, symBinAddr: 0x1000058A8, symSize: 0x14 }
  - { offsetInCU: 0x1134A, offset: 0x1134A, size: 0x8, addend: 0x0, symName: __ZNKSt3__16__lessIvvEclB8ue170006ImmEEbRKT_RKT0_, symObjAddr: 0x46B8, symBinAddr: 0x100005910, symSize: 0x34 }
  - { offsetInCU: 0x1139D, offset: 0x1139D, size: 0x8, addend: 0x0, symName: __ZNKSt3__19allocatorI4CardE8max_sizeB8ue170006Ev, symObjAddr: 0x46EC, symBinAddr: 0x100005944, symSize: 0x20 }
  - { offsetInCU: 0x113C2, offset: 0x113C2, size: 0x8, addend: 0x0, symName: __ZNKSt3__117__compressed_pairIP4CardNS_9allocatorIS1_EEE6secondB8ue170006Ev, symObjAddr: 0x470C, symBinAddr: 0x100005964, symSize: 0x24 }
  - { offsetInCU: 0x113E7, offset: 0x113E7, size: 0x8, addend: 0x0, symName: __ZNKSt3__122__compressed_pair_elemINS_9allocatorI4CardEELi1ELb1EE5__getB8ue170006Ev, symObjAddr: 0x4730, symBinAddr: 0x100005988, symSize: 0x14 }
  - { offsetInCU: 0x1140C, offset: 0x1140C, size: 0x8, addend: 0x0, symName: __ZNSt3__123__libcpp_numeric_limitsIlLb1EE3maxB8ue170006Ev, symObjAddr: 0x4744, symBinAddr: 0x10000599C, symSize: 0x8 }
  - { offsetInCU: 0x11420, offset: 0x11420, size: 0x8, addend: 0x0, symName: __ZNSt12length_errorC1B8ue170006EPKc, symObjAddr: 0x47B0, symBinAddr: 0x100005A08, symSize: 0x34 }
  - { offsetInCU: 0x11457, offset: 0x11457, size: 0x8, addend: 0x0, symName: __ZNSt12length_errorC2B8ue170006EPKc, symObjAddr: 0x47E4, symBinAddr: 0x100005A3C, symSize: 0x4C }
  - { offsetInCU: 0x1148E, offset: 0x1148E, size: 0x8, addend: 0x0, symName: __ZNKSt3__16vectorI4CardNS_9allocatorIS1_EEE9__end_capB8ue170006Ev, symObjAddr: 0x4830, symBinAddr: 0x100005A88, symSize: 0x28 }
  - { offsetInCU: 0x114B3, offset: 0x114B3, size: 0x8, addend: 0x0, symName: __ZNKSt3__117__compressed_pairIP4CardNS_9allocatorIS1_EEE5firstB8ue170006Ev, symObjAddr: 0x4858, symBinAddr: 0x100005AB0, symSize: 0x24 }
  - { offsetInCU: 0x114D8, offset: 0x114D8, size: 0x8, addend: 0x0, symName: __ZNKSt3__122__compressed_pair_elemIP4CardLi0ELb0EE5__getB8ue170006Ev, symObjAddr: 0x487C, symBinAddr: 0x100005AD4, symSize: 0x14 }
  - { offsetInCU: 0x114FD, offset: 0x114FD, size: 0x8, addend: 0x0, symName: __ZNSt3__114__split_bufferI4CardRNS_9allocatorIS1_EEEC2EmmS4_, symObjAddr: 0x48E4, symBinAddr: 0x100005B3C, symSize: 0xE0 }
  - { offsetInCU: 0x11574, offset: 0x11574, size: 0x8, addend: 0x0, symName: __ZNSt3__117__compressed_pairIP4CardRNS_9allocatorIS1_EEEC1B8ue170006IDnS5_EEOT_OT0_, symObjAddr: 0x49C4, symBinAddr: 0x100005C1C, symSize: 0x3C }
  - { offsetInCU: 0x115CB, offset: 0x115CB, size: 0x8, addend: 0x0, symName: __ZNSt3__114__split_bufferI4CardRNS_9allocatorIS1_EEE7__allocB8ue170006Ev, symObjAddr: 0x4A40, symBinAddr: 0x100005C98, symSize: 0x28 }
  - { offsetInCU: 0x115F0, offset: 0x115F0, size: 0x8, addend: 0x0, symName: __ZNSt3__114__split_bufferI4CardRNS_9allocatorIS1_EEE9__end_capB8ue170006Ev, symObjAddr: 0x4A68, symBinAddr: 0x100005CC0, symSize: 0x28 }
  - { offsetInCU: 0x11615, offset: 0x11615, size: 0x8, addend: 0x0, symName: __ZNSt3__117__compressed_pairIP4CardRNS_9allocatorIS1_EEEC2B8ue170006IDnS5_EEOT_OT0_, symObjAddr: 0x4A90, symBinAddr: 0x100005CE8, symSize: 0x48 }
  - { offsetInCU: 0x1166C, offset: 0x1166C, size: 0x8, addend: 0x0, symName: __ZNSt3__122__compressed_pair_elemIP4CardLi0ELb0EEC2B8ue170006IDnvEEOT_, symObjAddr: 0x4AD8, symBinAddr: 0x100005D30, symSize: 0x1C }
  - { offsetInCU: 0x116AD, offset: 0x116AD, size: 0x8, addend: 0x0, symName: __ZNSt3__122__compressed_pair_elemIRNS_9allocatorI4CardEELi1ELb0EEC2B8ue170006IS4_vEEOT_, symObjAddr: 0x4AF4, symBinAddr: 0x100005D4C, symSize: 0x20 }
  - { offsetInCU: 0x116EE, offset: 0x116EE, size: 0x8, addend: 0x0, symName: __ZNSt3__19allocatorI4CardE8allocateB8ue170006Em, symObjAddr: 0x4B14, symBinAddr: 0x100005D6C, symSize: 0x5C }
  - { offsetInCU: 0x11721, offset: 0x11721, size: 0x8, addend: 0x0, symName: __ZNSt3__117__compressed_pairIP4CardRNS_9allocatorIS1_EEE6secondB8ue170006Ev, symObjAddr: 0x4C74, symBinAddr: 0x100005ECC, symSize: 0x28 }
  - { offsetInCU: 0x11746, offset: 0x11746, size: 0x8, addend: 0x0, symName: __ZNSt3__122__compressed_pair_elemIRNS_9allocatorI4CardEELi1ELb0EE5__getB8ue170006Ev, symObjAddr: 0x4C9C, symBinAddr: 0x100005EF4, symSize: 0x18 }
  - { offsetInCU: 0x1176B, offset: 0x1176B, size: 0x8, addend: 0x0, symName: __ZNSt3__117__compressed_pairIP4CardRNS_9allocatorIS1_EEE5firstB8ue170006Ev, symObjAddr: 0x4CB4, symBinAddr: 0x100005F0C, symSize: 0x24 }
  - { offsetInCU: 0x11790, offset: 0x11790, size: 0x8, addend: 0x0, symName: __ZNSt3__114__split_bufferI4CardRNS_9allocatorIS1_EEE18__construct_at_endINS_13move_iteratorIPS1_EEEENS_9enable_ifIXsr31__has_forward_iterator_categoryIT_EE5valueEvE4typeESB_SB_, symObjAddr: 0x4D18, symBinAddr: 0x100005F70, symSize: 0x60 }
  - { offsetInCU: 0x117DC, offset: 0x117DC, size: 0x8, addend: 0x0, symName: __ZNSt3__113move_iteratorIP4CardEC1B8ue170006ES2_, symObjAddr: 0x4D78, symBinAddr: 0x100005FD0, symSize: 0x34 }
  - { offsetInCU: 0x1181D, offset: 0x1181D, size: 0x8, addend: 0x0, symName: __ZNKSt3__114__move_trivialclB8ue170006I4CardS2_Li0EEENS_4pairIPT_PT0_EES5_S5_S7_, symObjAddr: 0x4F24, symBinAddr: 0x10000617C, symSize: 0x48 }
  - { offsetInCU: 0x11884, offset: 0x11884, size: 0x8, addend: 0x0, symName: __ZNSt3__14pairIP4CardS2_EC1B8ue170006IRS2_S2_LPv0EEEOT_OT0_, symObjAddr: 0x502C, symBinAddr: 0x100006284, symSize: 0x3C }
  - { offsetInCU: 0x118E1, offset: 0x118E1, size: 0x8, addend: 0x0, symName: __ZNSt3__14pairIP4CardS2_EC2B8ue170006IRS2_S2_LPv0EEEOT_OT0_, symObjAddr: 0x5068, symBinAddr: 0x1000062C0, symSize: 0x34 }
  - { offsetInCU: 0x1193E, offset: 0x1193E, size: 0x8, addend: 0x0, symName: __ZNSt3__114__split_bufferI4CardRNS_9allocatorIS1_EEE28__construct_at_end_with_sizeINS_13move_iteratorIPS1_EEEEvT_m, symObjAddr: 0x509C, symBinAddr: 0x1000062F4, symSize: 0xDC }
  - { offsetInCU: 0x119A3, offset: 0x119A3, size: 0x8, addend: 0x0, symName: __ZNSt3__114__split_bufferI4CardRNS_9allocatorIS1_EEE21_ConstructTransactionC1B8ue170006EPPS1_m, symObjAddr: 0x51B4, symBinAddr: 0x10000640C, symSize: 0x3C }
  - { offsetInCU: 0x119E8, offset: 0x119E8, size: 0x8, addend: 0x0, symName: __ZNKSt3__113move_iteratorIP4CardEdeB8ue170006Ev, symObjAddr: 0x51F0, symBinAddr: 0x100006448, symSize: 0x18 }
  - { offsetInCU: 0x11A0D, offset: 0x11A0D, size: 0x8, addend: 0x0, symName: __ZNSt3__113move_iteratorIP4CardEppB8ue170006Ev, symObjAddr: 0x5208, symBinAddr: 0x100006460, symSize: 0x20 }
  - { offsetInCU: 0x11A32, offset: 0x11A32, size: 0x8, addend: 0x0, symName: __ZNSt3__114__split_bufferI4CardRNS_9allocatorIS1_EEE21_ConstructTransactionD1B8ue170006Ev, symObjAddr: 0x5228, symBinAddr: 0x100006480, symSize: 0x2C }
  - { offsetInCU: 0x11A5B, offset: 0x11A5B, size: 0x8, addend: 0x0, symName: __ZNSt3__114__split_bufferI4CardRNS_9allocatorIS1_EEE21_ConstructTransactionC2B8ue170006EPPS1_m, symObjAddr: 0x5254, symBinAddr: 0x1000064AC, symSize: 0x4C }
  - { offsetInCU: 0x11AA0, offset: 0x11AA0, size: 0x8, addend: 0x0, symName: __ZNSt3__114__split_bufferI4CardRNS_9allocatorIS1_EEE21_ConstructTransactionD2B8ue170006Ev, symObjAddr: 0x52A0, symBinAddr: 0x1000064F8, symSize: 0x20 }
  - { offsetInCU: 0x11AC9, offset: 0x11AC9, size: 0x8, addend: 0x0, symName: __ZNKSt3__113move_iteratorIP4CardE4baseB8ue170006Ev, symObjAddr: 0x5338, symBinAddr: 0x100006590, symSize: 0x18 }
  - { offsetInCU: 0x11AEE, offset: 0x11AEE, size: 0x8, addend: 0x0, symName: __ZNSt3__113move_iteratorIP4CardEC2B8ue170006ES2_, symObjAddr: 0x5350, symBinAddr: 0x1000065A8, symSize: 0x20 }
  - { offsetInCU: 0x11B25, offset: 0x11B25, size: 0x8, addend: 0x0, symName: __ZNKSt3__16vectorI4CardNS_9allocatorIS1_EEE17__annotate_deleteB8ue170006Ev, symObjAddr: 0x5370, symBinAddr: 0x1000065C8, symSize: 0xD4 }
  - { offsetInCU: 0x11B4A, offset: 0x11B4A, size: 0x8, addend: 0x0, symName: __ZNSt3__116reverse_iteratorIP4CardEC1B8ue170006ES2_, symObjAddr: 0x54BC, symBinAddr: 0x100006714, symSize: 0x34 }
  - { offsetInCU: 0x11B81, offset: 0x11B81, size: 0x8, addend: 0x0, symName: __ZNKSt3__116reverse_iteratorIP4CardE4baseB8ue170006Ev, symObjAddr: 0x54F0, symBinAddr: 0x100006748, symSize: 0x18 }
  - { offsetInCU: 0x11BA6, offset: 0x11BA6, size: 0x8, addend: 0x0, symName: __ZNKSt3__16vectorI4CardNS_9allocatorIS1_EEE14__annotate_newB8ue170006Em, symObjAddr: 0x5540, symBinAddr: 0x100006798, symSize: 0xC8 }
  - { offsetInCU: 0x11BDA, offset: 0x11BDA, size: 0x8, addend: 0x0, symName: __ZNKSt3__16vectorI4CardNS_9allocatorIS1_EEE31__annotate_contiguous_containerB8ue170006EPKvS6_S6_S6_, symObjAddr: 0x5608, symBinAddr: 0x100006860, symSize: 0x20 }
  - { offsetInCU: 0x11C2B, offset: 0x11C2B, size: 0x8, addend: 0x0, symName: __ZNKSt3__16vectorI4CardNS_9allocatorIS1_EEE4dataB8ue170006Ev, symObjAddr: 0x5628, symBinAddr: 0x100006880, symSize: 0x28 }
  - { offsetInCU: 0x11C73, offset: 0x11C73, size: 0x8, addend: 0x0, symName: __ZNKSt3__111__move_loopINS_17_ClassicAlgPolicyEEclB8ue170006INS_16reverse_iteratorIP4CardEES7_S7_EENS_4pairIT_T1_EES9_T0_SA_, symObjAddr: 0x5940, symBinAddr: 0x100006B98, symSize: 0xA8 }
  - { offsetInCU: 0x11CDD, offset: 0x11CDD, size: 0x8, addend: 0x0, symName: __ZNSt3__18_IterOpsINS_17_ClassicAlgPolicyEE11__iter_moveB8ue170006IRNS_16reverse_iteratorIP4CardEEEENS_9enable_ifIXsr12is_referenceIDTdeclsr3stdE7declvalIRT_EEEEE5valueEDTclsr3stdE4movedeclsr3stdE7declvalISB_EEEEE4typeEOSA_, symObjAddr: 0x5B7C, symBinAddr: 0x100006DD4, symSize: 0x28 }
  - { offsetInCU: 0x11D09, offset: 0x11D09, size: 0x8, addend: 0x0, symName: __ZNKSt3__116reverse_iteratorIP4CardEdeB8ue170006Ev, symObjAddr: 0x5BA4, symBinAddr: 0x100006DFC, symSize: 0x28 }
  - { offsetInCU: 0x11D3C, offset: 0x11D3C, size: 0x8, addend: 0x0, symName: __ZNSt3__116reverse_iteratorIP4CardEppB8ue170006Ev, symObjAddr: 0x5BCC, symBinAddr: 0x100006E24, symSize: 0x20 }
  - { offsetInCU: 0x11D61, offset: 0x11D61, size: 0x8, addend: 0x0, symName: __ZNSt3__18_IterOpsINS_17_ClassicAlgPolicyEE25__validate_iter_referenceB8ue170006IRNS_16reverse_iteratorIP4CardEEEEvv, symObjAddr: 0x5BEC, symBinAddr: 0x100006E44, symSize: 0x4 }
  - { offsetInCU: 0x11D7F, offset: 0x11D7F, size: 0x8, addend: 0x0, symName: __ZNSt3__118__unwrap_iter_implINS_16reverse_iteratorIP4CardEELb0EE8__unwrapB8ue170006ES4_, symObjAddr: 0x5BF0, symBinAddr: 0x100006E48, symSize: 0x24 }
  - { offsetInCU: 0x11DA7, offset: 0x11DA7, size: 0x8, addend: 0x0, symName: __ZNSt3__14pairINS_16reverse_iteratorIP4CardEES4_EC1B8ue170006IS4_S4_LPv0EEEOT_OT0_, symObjAddr: 0x5C14, symBinAddr: 0x100006E6C, symSize: 0x3C }
  - { offsetInCU: 0x11E04, offset: 0x11E04, size: 0x8, addend: 0x0, symName: __ZNSt3__14pairINS_16reverse_iteratorIP4CardEES4_EC2B8ue170006IS4_S4_LPv0EEEOT_OT0_, symObjAddr: 0x5C50, symBinAddr: 0x100006EA8, symSize: 0x34 }
  - { offsetInCU: 0x11E61, offset: 0x11E61, size: 0x8, addend: 0x0, symName: __ZNSt3__118__unwrap_iter_implINS_16reverse_iteratorIP4CardEELb0EE8__rewrapB8ue170006ES4_S4_, symObjAddr: 0x5C84, symBinAddr: 0x100006EDC, symSize: 0x2C }
  - { offsetInCU: 0x11E8E, offset: 0x11E8E, size: 0x8, addend: 0x0, symName: __ZNSt3__116reverse_iteratorIP4CardEC2B8ue170006ES2_, symObjAddr: 0x5CB0, symBinAddr: 0x100006F08, symSize: 0x28 }
  - { offsetInCU: 0x11EC5, offset: 0x11EC5, size: 0x8, addend: 0x0, symName: __ZNSt3__114__split_bufferI4CardRNS_9allocatorIS1_EEED2Ev, symObjAddr: 0x5CD8, symBinAddr: 0x100006F30, symSize: 0x8C }
  - { offsetInCU: 0x11EF0, offset: 0x11EF0, size: 0x8, addend: 0x0, symName: __ZNSt3__114__split_bufferI4CardRNS_9allocatorIS1_EEE5clearB8ue170006Ev, symObjAddr: 0x5D64, symBinAddr: 0x100006FBC, symSize: 0x28 }
  - { offsetInCU: 0x11F15, offset: 0x11F15, size: 0x8, addend: 0x0, symName: __ZNSt3__116allocator_traitsINS_9allocatorI4CardEEE10deallocateB8ue170006ERS3_PS2_m, symObjAddr: 0x5D8C, symBinAddr: 0x100006FE4, symSize: 0x34 }
  - { offsetInCU: 0x11F57, offset: 0x11F57, size: 0x8, addend: 0x0, symName: __ZNKSt3__114__split_bufferI4CardRNS_9allocatorIS1_EEE8capacityB8ue170006Ev, symObjAddr: 0x5DC0, symBinAddr: 0x100007018, symSize: 0x40 }
  - { offsetInCU: 0x11F7C, offset: 0x11F7C, size: 0x8, addend: 0x0, symName: __ZNSt3__114__split_bufferI4CardRNS_9allocatorIS1_EEE17__destruct_at_endB8ue170006EPS1_, symObjAddr: 0x5E00, symBinAddr: 0x100007058, symSize: 0x2C }
  - { offsetInCU: 0x11FAF, offset: 0x11FAF, size: 0x8, addend: 0x0, symName: __ZNSt3__114__split_bufferI4CardRNS_9allocatorIS1_EEE17__destruct_at_endB8ue170006EPS1_NS_17integral_constantIbLb0EEE, symObjAddr: 0x5E2C, symBinAddr: 0x100007084, symSize: 0x80 }
  - { offsetInCU: 0x11FEE, offset: 0x11FEE, size: 0x8, addend: 0x0, symName: __ZNSt3__116allocator_traitsINS_9allocatorI4CardEEE7destroyB8ue170006IS2_vEEvRS3_PT_, symObjAddr: 0x5EAC, symBinAddr: 0x100007104, symSize: 0x2C }
  - { offsetInCU: 0x1202B, offset: 0x1202B, size: 0x8, addend: 0x0, symName: __ZNSt3__19allocatorI4CardE7destroyB8ue170006EPS1_, symObjAddr: 0x5ED8, symBinAddr: 0x100007130, symSize: 0x14 }
  - { offsetInCU: 0x1205E, offset: 0x1205E, size: 0x8, addend: 0x0, symName: __ZNSt3__19allocatorI4CardE10deallocateB8ue170006EPS1_m, symObjAddr: 0x5EEC, symBinAddr: 0x100007144, symSize: 0x44 }
  - { offsetInCU: 0x1209F, offset: 0x1209F, size: 0x8, addend: 0x0, symName: __ZNKSt3__114__split_bufferI4CardRNS_9allocatorIS1_EEE9__end_capB8ue170006Ev, symObjAddr: 0x6038, symBinAddr: 0x100007290, symSize: 0x28 }
  - { offsetInCU: 0x120C4, offset: 0x120C4, size: 0x8, addend: 0x0, symName: __ZNKSt3__117__compressed_pairIP4CardRNS_9allocatorIS1_EEE5firstB8ue170006Ev, symObjAddr: 0x6060, symBinAddr: 0x1000072B8, symSize: 0x24 }
  - { offsetInCU: 0x120E9, offset: 0x120E9, size: 0x8, addend: 0x0, symName: __ZNSt3__16vectorI4CardNS_9allocatorIS1_EEE17__destruct_at_endB8ue170006EPS1_, symObjAddr: 0x6084, symBinAddr: 0x1000072DC, symSize: 0x4C }
  - { offsetInCU: 0x1212C, offset: 0x1212C, size: 0x8, addend: 0x0, symName: __ZNSt3__16vectorI4CardNS_9allocatorIS1_EEE22__base_destruct_at_endB8ue170006EPS1_, symObjAddr: 0x60D0, symBinAddr: 0x100007328, symSize: 0x8C }
  - { offsetInCU: 0x1216F, offset: 0x1216F, size: 0x8, addend: 0x0, symName: __ZNKSt3__16vectorI4CardNS_9allocatorIS1_EEE17__annotate_shrinkB8ue170006Em, symObjAddr: 0x615C, symBinAddr: 0x1000073B4, symSize: 0xD0 }
  - { offsetInCU: 0x121A3, offset: 0x121A3, size: 0x8, addend: 0x0, symName: __ZNSt3__16vectorI4CardNS_9allocatorIS1_EEE7__clearB8ue170006Ev, symObjAddr: 0x622C, symBinAddr: 0x100007484, symSize: 0x28 }
  - { offsetInCU: 0x121C8, offset: 0x121C8, size: 0x8, addend: 0x0, symName: __ZNKSt3__16vectorI4MoveNS_9allocatorIS1_EEE4sizeB8ue170006Ev, symObjAddr: 0x6254, symBinAddr: 0x1000074AC, symSize: 0x28 }
  - { offsetInCU: 0x121ED, offset: 0x121ED, size: 0x8, addend: 0x0, symName: __ZNSt3__16vectorI4MoveNS_9allocatorIS1_EEE7__clearB8ue170006Ev, symObjAddr: 0x627C, symBinAddr: 0x1000074D4, symSize: 0x28 }
  - { offsetInCU: 0x12212, offset: 0x12212, size: 0x8, addend: 0x0, symName: __ZNKSt3__16vectorI4MoveNS_9allocatorIS1_EEE17__annotate_shrinkB8ue170006Em, symObjAddr: 0x62A4, symBinAddr: 0x1000074FC, symSize: 0xD0 }
  - { offsetInCU: 0x12246, offset: 0x12246, size: 0x8, addend: 0x0, symName: __ZNSt3__16vectorI4MoveNS_9allocatorIS1_EEE22__base_destruct_at_endB8ue170006EPS1_, symObjAddr: 0x6374, symBinAddr: 0x1000075CC, symSize: 0x8C }
  - { offsetInCU: 0x12289, offset: 0x12289, size: 0x8, addend: 0x0, symName: __ZNSt3__116allocator_traitsINS_9allocatorI4MoveEEE7destroyB8ue170006IS2_vEEvRS3_PT_, symObjAddr: 0x6400, symBinAddr: 0x100007658, symSize: 0x2C }
  - { offsetInCU: 0x122C6, offset: 0x122C6, size: 0x8, addend: 0x0, symName: __ZNSt3__16vectorI4MoveNS_9allocatorIS1_EEE7__allocB8ue170006Ev, symObjAddr: 0x642C, symBinAddr: 0x100007684, symSize: 0x28 }
  - { offsetInCU: 0x122EB, offset: 0x122EB, size: 0x8, addend: 0x0, symName: __ZNSt3__19allocatorI4MoveE7destroyB8ue170006EPS1_, symObjAddr: 0x6468, symBinAddr: 0x1000076C0, symSize: 0x14 }
  - { offsetInCU: 0x1231E, offset: 0x1231E, size: 0x8, addend: 0x0, symName: __ZNSt3__117__compressed_pairIP4MoveNS_9allocatorIS1_EEE6secondB8ue170006Ev, symObjAddr: 0x647C, symBinAddr: 0x1000076D4, symSize: 0x24 }
  - { offsetInCU: 0x12343, offset: 0x12343, size: 0x8, addend: 0x0, symName: __ZNSt3__122__compressed_pair_elemINS_9allocatorI4MoveEELi1ELb1EE5__getB8ue170006Ev, symObjAddr: 0x64A0, symBinAddr: 0x1000076F8, symSize: 0x14 }
  - { offsetInCU: 0x12368, offset: 0x12368, size: 0x8, addend: 0x0, symName: __ZNKSt3__16vectorI4MoveNS_9allocatorIS1_EEE31__annotate_contiguous_containerB8ue170006EPKvS6_S6_S6_, symObjAddr: 0x64B4, symBinAddr: 0x10000770C, symSize: 0x20 }
  - { offsetInCU: 0x123B9, offset: 0x123B9, size: 0x8, addend: 0x0, symName: __ZNKSt3__16vectorI4MoveNS_9allocatorIS1_EEE4dataB8ue170006Ev, symObjAddr: 0x64D4, symBinAddr: 0x10000772C, symSize: 0x28 }
  - { offsetInCU: 0x123DE, offset: 0x123DE, size: 0x8, addend: 0x0, symName: __ZNKSt3__16vectorI4MoveNS_9allocatorIS1_EEE8capacityB8ue170006Ev, symObjAddr: 0x64FC, symBinAddr: 0x100007754, symSize: 0x40 }
  - { offsetInCU: 0x12403, offset: 0x12403, size: 0x8, addend: 0x0, symName: __ZNKSt3__16vectorI4MoveNS_9allocatorIS1_EEE9__end_capB8ue170006Ev, symObjAddr: 0x653C, symBinAddr: 0x100007794, symSize: 0x28 }
  - { offsetInCU: 0x12428, offset: 0x12428, size: 0x8, addend: 0x0, symName: __ZNKSt3__117__compressed_pairIP4MoveNS_9allocatorIS1_EEE5firstB8ue170006Ev, symObjAddr: 0x6564, symBinAddr: 0x1000077BC, symSize: 0x24 }
  - { offsetInCU: 0x1244D, offset: 0x1244D, size: 0x8, addend: 0x0, symName: __ZNKSt3__122__compressed_pair_elemIP4MoveLi0ELb0EE5__getB8ue170006Ev, symObjAddr: 0x6588, symBinAddr: 0x1000077E0, symSize: 0x14 }
  - { offsetInCU: 0x12472, offset: 0x12472, size: 0x8, addend: 0x0, symName: __ZNSt3__16vectorI4CardNS_9allocatorIS1_EEE22__construct_one_at_endB8ue170006IJS1_EEEvDpOT_, symObjAddr: 0x659C, symBinAddr: 0x1000077F4, symSize: 0x90 }
  - { offsetInCU: 0x124C0, offset: 0x124C0, size: 0x8, addend: 0x0, symName: __ZNSt3__16vectorI4CardNS_9allocatorIS1_EEE21__push_back_slow_pathIS1_EEvOT_, symObjAddr: 0x662C, symBinAddr: 0x100007884, symSize: 0xD8 }
  - { offsetInCU: 0x1251D, offset: 0x1251D, size: 0x8, addend: 0x0, symName: __ZNSt3__123mersenne_twister_engineIjLm32ELm624ELm397ELm31ELj2567483615ELm11ELj4294967295ELm7ELj2636928640ELm15ELj4022730752ELm18ELj1812433253EEC2B8ue170006Ej, symObjAddr: 0x6814, symBinAddr: 0x100007A6C, symSize: 0x34 }
  - { offsetInCU: 0x12554, offset: 0x12554, size: 0x8, addend: 0x0, symName: __ZNSt3__123mersenne_twister_engineIjLm32ELm624ELm397ELm31ELj2567483615ELm11ELj4294967295ELm7ELj2636928640ELm15ELj4022730752ELm18ELj1812433253EE4seedEj, symObjAddr: 0x6848, symBinAddr: 0x100007AA0, symSize: 0xC4 }
  - { offsetInCU: 0x125A6, offset: 0x125A6, size: 0x8, addend: 0x0, symName: __ZNSt3__123mersenne_twister_engineIjLm32ELm624ELm397ELm31ELj2567483615ELm11ELj4294967295ELm7ELj2636928640ELm15ELj4022730752ELm18ELj1812433253EE8__rshiftB8ue170006ILm30EEENS_9enable_ifIXltT_L_ZNS1_3_DtEEEjE4typeEj, symObjAddr: 0x690C, symBinAddr: 0x100007B64, symSize: 0x18 }
  - { offsetInCU: 0x125D3, offset: 0x125D3, size: 0x8, addend: 0x0, symName: __ZNSt3__18_IterOpsINS_17_ClassicAlgPolicyEE4nextB8ue170006INS_11__wrap_iterIP4CardEEEET_S8_S8_, symObjAddr: 0x6A60, symBinAddr: 0x100007CB8, symSize: 0x20 }
  - { offsetInCU: 0x12609, offset: 0x12609, size: 0x8, addend: 0x0, symName: __ZNSt3__124uniform_int_distributionIlEC1B8ue170006Ev, symObjAddr: 0x6AC8, symBinAddr: 0x100007D20, symSize: 0x3C }
  - { offsetInCU: 0x12632, offset: 0x12632, size: 0x8, addend: 0x0, symName: __ZNSt3__111__wrap_iterIP4CardEmmB8ue170006Ev, symObjAddr: 0x6B04, symBinAddr: 0x100007D5C, symSize: 0x20 }
  - { offsetInCU: 0x12657, offset: 0x12657, size: 0x8, addend: 0x0, symName: __ZNSt3__124uniform_int_distributionIlE10param_typeC1B8ue170006Ell, symObjAddr: 0x6CE0, symBinAddr: 0x100007F38, symSize: 0x3C }
  - { offsetInCU: 0x126A1, offset: 0x126A1, size: 0x8, addend: 0x0, symName: __ZNSt3__18_IterOpsINS_17_ClassicAlgPolicyEE9iter_swapB8ue170006IRNS_11__wrap_iterIP4CardEES7_EEvOT_OT0_, symObjAddr: 0x6D1C, symBinAddr: 0x100007F74, symSize: 0x44 }
  - { offsetInCU: 0x126E4, offset: 0x126E4, size: 0x8, addend: 0x0, symName: __ZNKSt3__111__wrap_iterIP4CardEplB8ue170006El, symObjAddr: 0x6D60, symBinAddr: 0x100007FB8, symSize: 0x3C }
  - { offsetInCU: 0x12725, offset: 0x12725, size: 0x8, addend: 0x0, symName: __ZNSt3__111__wrap_iterIP4CardEppB8ue170006Ev, symObjAddr: 0x6D9C, symBinAddr: 0x100007FF4, symSize: 0x20 }
  - { offsetInCU: 0x1274A, offset: 0x1274A, size: 0x8, addend: 0x0, symName: __ZNSt3__124uniform_int_distributionIlEC1B8ue170006Ell, symObjAddr: 0x6DBC, symBinAddr: 0x100008014, symSize: 0x3C }
  - { offsetInCU: 0x1278F, offset: 0x1278F, size: 0x8, addend: 0x0, symName: __ZNSt3__124uniform_int_distributionIlEC2B8ue170006Ell, symObjAddr: 0x6DF8, symBinAddr: 0x100008050, symSize: 0x3C }
  - { offsetInCU: 0x127D4, offset: 0x127D4, size: 0x8, addend: 0x0, symName: __ZNKSt3__124uniform_int_distributionIlE10param_type1bB8ue170006Ev, symObjAddr: 0x6E34, symBinAddr: 0x10000808C, symSize: 0x18 }
  - { offsetInCU: 0x127F9, offset: 0x127F9, size: 0x8, addend: 0x0, symName: __ZNKSt3__124uniform_int_distributionIlE10param_type1aB8ue170006Ev, symObjAddr: 0x6E4C, symBinAddr: 0x1000080A4, symSize: 0x18 }
  - { offsetInCU: 0x1281E, offset: 0x1281E, size: 0x8, addend: 0x0, symName: __ZNSt3__125__independent_bits_engineINS_23mersenne_twister_engineIjLm32ELm624ELm397ELm31ELj2567483615ELm11ELj4294967295ELm7ELj2636928640ELm15ELj4022730752ELm18ELj1812433253EEEmEC1ERS2_m, symObjAddr: 0x6E64, symBinAddr: 0x1000080BC, symSize: 0x3C }
  - { offsetInCU: 0x12864, offset: 0x12864, size: 0x8, addend: 0x0, symName: __ZNSt3__125__independent_bits_engineINS_23mersenne_twister_engineIjLm32ELm624ELm397ELm31ELj2567483615ELm11ELj4294967295ELm7ELj2636928640ELm15ELj4022730752ELm18ELj1812433253EEEmEclB8ue170006Ev, symObjAddr: 0x6EA0, symBinAddr: 0x1000080F8, symSize: 0x24 }
  - { offsetInCU: 0x12889, offset: 0x12889, size: 0x8, addend: 0x0, symName: __ZNSt3__114numeric_limitsImE3maxB8ue170006Ev, symObjAddr: 0x6F18, symBinAddr: 0x100008170, symSize: 0x14 }
  - { offsetInCU: 0x1289D, offset: 0x1289D, size: 0x8, addend: 0x0, symName: __ZNSt3__125__independent_bits_engineINS_23mersenne_twister_engineIjLm32ELm624ELm397ELm31ELj2567483615ELm11ELj4294967295ELm7ELj2636928640ELm15ELj4022730752ELm18ELj1812433253EEEmEC2ERS2_m, symObjAddr: 0x6F2C, symBinAddr: 0x100008184, symSize: 0x264 }
  - { offsetInCU: 0x128E3, offset: 0x128E3, size: 0x8, addend: 0x0, symName: __ZNSt3__125__independent_bits_engineINS_23mersenne_twister_engineIjLm32ELm624ELm397ELm31ELj2567483615ELm11ELj4294967295ELm7ELj2636928640ELm15ELj4022730752ELm18ELj1812433253EEEmE6__evalENS_17integral_constantIbLb1EEE, symObjAddr: 0x7190, symBinAddr: 0x1000083E8, symSize: 0x1F0 }
  - { offsetInCU: 0x1299F, offset: 0x1299F, size: 0x8, addend: 0x0, symName: __ZNSt3__123mersenne_twister_engineIjLm32ELm624ELm397ELm31ELj2567483615ELm11ELj4294967295ELm7ELj2636928640ELm15ELj4022730752ELm18ELj1812433253EEclEv, symObjAddr: 0x7380, symBinAddr: 0x1000085D8, symSize: 0x14C }
  - { offsetInCU: 0x12A11, offset: 0x12A11, size: 0x8, addend: 0x0, symName: __ZNSt3__123mersenne_twister_engineIjLm32ELm624ELm397ELm31ELj2567483615ELm11ELj4294967295ELm7ELj2636928640ELm15ELj4022730752ELm18ELj1812433253EE3minB8ue170006Ev, symObjAddr: 0x74CC, symBinAddr: 0x100008724, symSize: 0x8 }
  - { offsetInCU: 0x12A25, offset: 0x12A25, size: 0x8, addend: 0x0, symName: __ZNSt3__123mersenne_twister_engineIjLm32ELm624ELm397ELm31ELj2567483615ELm11ELj4294967295ELm7ELj2636928640ELm15ELj4022730752ELm18ELj1812433253EE8__rshiftB8ue170006ILm1EEENS_9enable_ifIXltT_L_ZNS1_3_DtEEEjE4typeEj, symObjAddr: 0x74D4, symBinAddr: 0x10000872C, symSize: 0x18 }
  - { offsetInCU: 0x12A52, offset: 0x12A52, size: 0x8, addend: 0x0, symName: __ZNSt3__123mersenne_twister_engineIjLm32ELm624ELm397ELm31ELj2567483615ELm11ELj4294967295ELm7ELj2636928640ELm15ELj4022730752ELm18ELj1812433253EE8__rshiftB8ue170006ILm11EEENS_9enable_ifIXltT_L_ZNS1_3_DtEEEjE4typeEj, symObjAddr: 0x74EC, symBinAddr: 0x100008744, symSize: 0x18 }
  - { offsetInCU: 0x12A7F, offset: 0x12A7F, size: 0x8, addend: 0x0, symName: __ZNSt3__123mersenne_twister_engineIjLm32ELm624ELm397ELm31ELj2567483615ELm11ELj4294967295ELm7ELj2636928640ELm15ELj4022730752ELm18ELj1812433253EE8__lshiftB8ue170006ILm7EEENS_9enable_ifIXltT_Lm32EEjE4typeEj, symObjAddr: 0x7504, symBinAddr: 0x10000875C, symSize: 0x1C }
  - { offsetInCU: 0x12AAC, offset: 0x12AAC, size: 0x8, addend: 0x0, symName: __ZNSt3__123mersenne_twister_engineIjLm32ELm624ELm397ELm31ELj2567483615ELm11ELj4294967295ELm7ELj2636928640ELm15ELj4022730752ELm18ELj1812433253EE8__lshiftB8ue170006ILm15EEENS_9enable_ifIXltT_Lm32EEjE4typeEj, symObjAddr: 0x7520, symBinAddr: 0x100008778, symSize: 0x1C }
  - { offsetInCU: 0x12AD9, offset: 0x12AD9, size: 0x8, addend: 0x0, symName: __ZNSt3__123mersenne_twister_engineIjLm32ELm624ELm397ELm31ELj2567483615ELm11ELj4294967295ELm7ELj2636928640ELm15ELj4022730752ELm18ELj1812433253EE8__rshiftB8ue170006ILm18EEENS_9enable_ifIXltT_L_ZNS1_3_DtEEEjE4typeEj, symObjAddr: 0x753C, symBinAddr: 0x100008794, symSize: 0x18 }
  - { offsetInCU: 0x12B06, offset: 0x12B06, size: 0x8, addend: 0x0, symName: __ZNSt3__123__libcpp_numeric_limitsImLb1EE3maxB8ue170006Ev, symObjAddr: 0x7570, symBinAddr: 0x1000087C8, symSize: 0x8 }
  - { offsetInCU: 0x12B1A, offset: 0x12B1A, size: 0x8, addend: 0x0, symName: __ZNSt3__124uniform_int_distributionIlE10param_typeC2B8ue170006Ell, symObjAddr: 0x7578, symBinAddr: 0x1000087D0, symSize: 0x2C }
  - { offsetInCU: 0x12B5F, offset: 0x12B5F, size: 0x8, addend: 0x0, symName: __ZNKSt3__111__wrap_iterIP4CardEdeB8ue170006Ev, symObjAddr: 0x764C, symBinAddr: 0x1000088A4, symSize: 0x18 }
  - { offsetInCU: 0x12B84, offset: 0x12B84, size: 0x8, addend: 0x0, symName: __ZNSt3__111__wrap_iterIP4CardEpLB8ue170006El, symObjAddr: 0x7664, symBinAddr: 0x1000088BC, symSize: 0x30 }
  - { offsetInCU: 0x12BB7, offset: 0x12BB7, size: 0x8, addend: 0x0, symName: __ZNSt3__16vectorI4CardNS_9allocatorIS1_EEE21__push_back_slow_pathIRKS1_EEvOT_, symObjAddr: 0x7694, symBinAddr: 0x1000088EC, symSize: 0xD8 }
  - { offsetInCU: 0x12C14, offset: 0x12C14, size: 0x8, addend: 0x0, symName: __ZNSt3__16vectorI4MoveNS_9allocatorIS1_EEE9__end_capB8ue170006Ev, symObjAddr: 0x776C, symBinAddr: 0x1000089C4, symSize: 0x28 }
  - { offsetInCU: 0x12C39, offset: 0x12C39, size: 0x8, addend: 0x0, symName: __ZNSt3__16vectorI4MoveNS_9allocatorIS1_EEE22__construct_one_at_endB8ue170006IJRKS1_EEEvDpOT_, symObjAddr: 0x7794, symBinAddr: 0x1000089EC, symSize: 0x90 }
  - { offsetInCU: 0x12C87, offset: 0x12C87, size: 0x8, addend: 0x0, symName: __ZNSt3__16vectorI4MoveNS_9allocatorIS1_EEE21__push_back_slow_pathIRKS1_EEvOT_, symObjAddr: 0x7824, symBinAddr: 0x100008A7C, symSize: 0xD8 }
  - { offsetInCU: 0x12CE4, offset: 0x12CE4, size: 0x8, addend: 0x0, symName: __ZNSt3__117__compressed_pairIP4MoveNS_9allocatorIS1_EEE5firstB8ue170006Ev, symObjAddr: 0x78FC, symBinAddr: 0x100008B54, symSize: 0x24 }
  - { offsetInCU: 0x12D09, offset: 0x12D09, size: 0x8, addend: 0x0, symName: __ZNSt3__122__compressed_pair_elemIP4MoveLi0ELb0EE5__getB8ue170006Ev, symObjAddr: 0x7920, symBinAddr: 0x100008B78, symSize: 0x14 }
  - { offsetInCU: 0x12D47, offset: 0x12D47, size: 0x8, addend: 0x0, symName: __ZNSt3__16vectorI4MoveNS_9allocatorIS1_EEE21_ConstructTransactionC1B8ue170006ERS4_m, symObjAddr: 0x7934, symBinAddr: 0x100008B8C, symSize: 0x3C }
  - { offsetInCU: 0x12D8E, offset: 0x12D8E, size: 0x8, addend: 0x0, symName: __ZNSt3__116allocator_traitsINS_9allocatorI4MoveEEE9constructB8ue170006IS2_JRKS2_EvEEvRS3_PT_DpOT0_, symObjAddr: 0x7970, symBinAddr: 0x100008BC8, symSize: 0x34 }
  - { offsetInCU: 0x12DE5, offset: 0x12DE5, size: 0x8, addend: 0x0, symName: __ZNSt3__16vectorI4MoveNS_9allocatorIS1_EEE21_ConstructTransactionD1B8ue170006Ev, symObjAddr: 0x79A4, symBinAddr: 0x100008BFC, symSize: 0x2C }
  - { offsetInCU: 0x12E0E, offset: 0x12E0E, size: 0x8, addend: 0x0, symName: __ZNSt3__16vectorI4MoveNS_9allocatorIS1_EEE21_ConstructTransactionC2B8ue170006ERS4_m, symObjAddr: 0x79D0, symBinAddr: 0x100008C28, symSize: 0x4C }
  - { offsetInCU: 0x12E55, offset: 0x12E55, size: 0x8, addend: 0x0, symName: __ZNSt3__19allocatorI4MoveE9constructB8ue170006IS1_JRKS1_EEEvPT_DpOT0_, symObjAddr: 0x7A1C, symBinAddr: 0x100008C74, symSize: 0x34 }
  - { offsetInCU: 0x12EAA, offset: 0x12EAA, size: 0x8, addend: 0x0, symName: __ZNSt3__16vectorI4MoveNS_9allocatorIS1_EEE21_ConstructTransactionD2B8ue170006Ev, symObjAddr: 0x7A50, symBinAddr: 0x100008CA8, symSize: 0x20 }
  - { offsetInCU: 0x12ED3, offset: 0x12ED3, size: 0x8, addend: 0x0, symName: __ZNKSt3__16vectorI4MoveNS_9allocatorIS1_EEE11__recommendB8ue170006Em, symObjAddr: 0x7A70, symBinAddr: 0x100008CC8, symSize: 0xB4 }
  - { offsetInCU: 0x12F27, offset: 0x12F27, size: 0x8, addend: 0x0, symName: __ZNSt3__114__split_bufferI4MoveRNS_9allocatorIS1_EEEC1EmmS4_, symObjAddr: 0x7B24, symBinAddr: 0x100008D7C, symSize: 0x44 }
  - { offsetInCU: 0x12F7C, offset: 0x12F7C, size: 0x8, addend: 0x0, symName: __ZNSt3__114__split_bufferI4MoveRNS_9allocatorIS1_EEED1Ev, symObjAddr: 0x7C78, symBinAddr: 0x100008ED0, symSize: 0x2C }
  - { offsetInCU: 0x12FA7, offset: 0x12FA7, size: 0x8, addend: 0x0, symName: __ZNKSt3__16vectorI4MoveNS_9allocatorIS1_EEE8max_sizeEv, symObjAddr: 0x7CA4, symBinAddr: 0x100008EFC, symSize: 0x60 }
  - { offsetInCU: 0x12FCE, offset: 0x12FCE, size: 0x8, addend: 0x0, symName: __ZNKSt3__16vectorI4MoveNS_9allocatorIS1_EEE20__throw_length_errorB8ue170006Ev, symObjAddr: 0x7D04, symBinAddr: 0x100008F5C, symSize: 0x1C }
  - { offsetInCU: 0x12FFD, offset: 0x12FFD, size: 0x8, addend: 0x0, symName: __ZNSt3__116allocator_traitsINS_9allocatorI4MoveEEE8max_sizeB8ue170006IS3_vEEmRKS3_, symObjAddr: 0x7D20, symBinAddr: 0x100008F78, symSize: 0x24 }
  - { offsetInCU: 0x1302B, offset: 0x1302B, size: 0x8, addend: 0x0, symName: __ZNKSt3__16vectorI4MoveNS_9allocatorIS1_EEE7__allocB8ue170006Ev, symObjAddr: 0x7D44, symBinAddr: 0x100008F9C, symSize: 0x28 }
  - { offsetInCU: 0x13050, offset: 0x13050, size: 0x8, addend: 0x0, symName: __ZNKSt3__19allocatorI4MoveE8max_sizeB8ue170006Ev, symObjAddr: 0x7D6C, symBinAddr: 0x100008FC4, symSize: 0x20 }
  - { offsetInCU: 0x13075, offset: 0x13075, size: 0x8, addend: 0x0, symName: __ZNKSt3__117__compressed_pairIP4MoveNS_9allocatorIS1_EEE6secondB8ue170006Ev, symObjAddr: 0x7D8C, symBinAddr: 0x100008FE4, symSize: 0x24 }
  - { offsetInCU: 0x1309A, offset: 0x1309A, size: 0x8, addend: 0x0, symName: __ZNKSt3__122__compressed_pair_elemINS_9allocatorI4MoveEELi1ELb1EE5__getB8ue170006Ev, symObjAddr: 0x7DB0, symBinAddr: 0x100009008, symSize: 0x14 }
  - { offsetInCU: 0x130BF, offset: 0x130BF, size: 0x8, addend: 0x0, symName: __ZNSt3__114__split_bufferI4MoveRNS_9allocatorIS1_EEEC2EmmS4_, symObjAddr: 0x7DC4, symBinAddr: 0x10000901C, symSize: 0xE0 }
  - { offsetInCU: 0x13131, offset: 0x13131, size: 0x8, addend: 0x0, symName: __ZNSt3__117__compressed_pairIP4MoveRNS_9allocatorIS1_EEEC1B8ue170006IDnS5_EEOT_OT0_, symObjAddr: 0x7EA4, symBinAddr: 0x1000090FC, symSize: 0x3C }
  - { offsetInCU: 0x13188, offset: 0x13188, size: 0x8, addend: 0x0, symName: __ZNSt3__114__split_bufferI4MoveRNS_9allocatorIS1_EEE7__allocB8ue170006Ev, symObjAddr: 0x7F20, symBinAddr: 0x100009178, symSize: 0x28 }
  - { offsetInCU: 0x131AD, offset: 0x131AD, size: 0x8, addend: 0x0, symName: __ZNSt3__114__split_bufferI4MoveRNS_9allocatorIS1_EEE9__end_capB8ue170006Ev, symObjAddr: 0x7F48, symBinAddr: 0x1000091A0, symSize: 0x28 }
  - { offsetInCU: 0x131D2, offset: 0x131D2, size: 0x8, addend: 0x0, symName: __ZNSt3__117__compressed_pairIP4MoveRNS_9allocatorIS1_EEEC2B8ue170006IDnS5_EEOT_OT0_, symObjAddr: 0x7F70, symBinAddr: 0x1000091C8, symSize: 0x48 }
  - { offsetInCU: 0x13229, offset: 0x13229, size: 0x8, addend: 0x0, symName: __ZNSt3__122__compressed_pair_elemIP4MoveLi0ELb0EEC2B8ue170006IDnvEEOT_, symObjAddr: 0x7FB8, symBinAddr: 0x100009210, symSize: 0x1C }
  - { offsetInCU: 0x1326A, offset: 0x1326A, size: 0x8, addend: 0x0, symName: __ZNSt3__122__compressed_pair_elemIRNS_9allocatorI4MoveEELi1ELb0EEC2B8ue170006IS4_vEEOT_, symObjAddr: 0x7FD4, symBinAddr: 0x10000922C, symSize: 0x20 }
  - { offsetInCU: 0x132AB, offset: 0x132AB, size: 0x8, addend: 0x0, symName: __ZNSt3__19allocatorI4MoveE8allocateB8ue170006Em, symObjAddr: 0x7FF4, symBinAddr: 0x10000924C, symSize: 0x5C }
  - { offsetInCU: 0x132DE, offset: 0x132DE, size: 0x8, addend: 0x0, symName: __ZNSt3__117__compressed_pairIP4MoveRNS_9allocatorIS1_EEE6secondB8ue170006Ev, symObjAddr: 0x8050, symBinAddr: 0x1000092A8, symSize: 0x28 }
  - { offsetInCU: 0x13303, offset: 0x13303, size: 0x8, addend: 0x0, symName: __ZNSt3__122__compressed_pair_elemIRNS_9allocatorI4MoveEELi1ELb0EE5__getB8ue170006Ev, symObjAddr: 0x8078, symBinAddr: 0x1000092D0, symSize: 0x18 }
  - { offsetInCU: 0x13328, offset: 0x13328, size: 0x8, addend: 0x0, symName: __ZNSt3__117__compressed_pairIP4MoveRNS_9allocatorIS1_EEE5firstB8ue170006Ev, symObjAddr: 0x8090, symBinAddr: 0x1000092E8, symSize: 0x24 }
  - { offsetInCU: 0x1334D, offset: 0x1334D, size: 0x8, addend: 0x0, symName: __ZNKSt3__16vectorI4MoveNS_9allocatorIS1_EEE17__annotate_deleteB8ue170006Ev, symObjAddr: 0x80B4, symBinAddr: 0x10000930C, symSize: 0xD4 }
  - { offsetInCU: 0x13372, offset: 0x13372, size: 0x8, addend: 0x0, symName: __ZNSt3__116reverse_iteratorIP4MoveEC1B8ue170006ES2_, symObjAddr: 0x8200, symBinAddr: 0x100009458, symSize: 0x34 }
  - { offsetInCU: 0x133A9, offset: 0x133A9, size: 0x8, addend: 0x0, symName: __ZNKSt3__116reverse_iteratorIP4MoveE4baseB8ue170006Ev, symObjAddr: 0x8234, symBinAddr: 0x10000948C, symSize: 0x18 }
  - { offsetInCU: 0x133CE, offset: 0x133CE, size: 0x8, addend: 0x0, symName: __ZNKSt3__16vectorI4MoveNS_9allocatorIS1_EEE14__annotate_newB8ue170006Em, symObjAddr: 0x8288, symBinAddr: 0x1000094E0, symSize: 0xC8 }
  - { offsetInCU: 0x1341B, offset: 0x1341B, size: 0x8, addend: 0x0, symName: __ZNKSt3__111__move_loopINS_17_ClassicAlgPolicyEEclB8ue170006INS_16reverse_iteratorIP4MoveEES7_S7_EENS_4pairIT_T1_EES9_T0_SA_, symObjAddr: 0x8640, symBinAddr: 0x100009898, symSize: 0x9C }
  - { offsetInCU: 0x1348A, offset: 0x1348A, size: 0x8, addend: 0x0, symName: __ZNSt3__18_IterOpsINS_17_ClassicAlgPolicyEE11__iter_moveB8ue170006IRNS_16reverse_iteratorIP4MoveEEEENS_9enable_ifIXsr12is_referenceIDTdeclsr3stdE7declvalIRT_EEEEE5valueEDTclsr3stdE4movedeclsr3stdE7declvalISB_EEEEE4typeEOSA_, symObjAddr: 0x8870, symBinAddr: 0x100009AC8, symSize: 0x28 }
  - { offsetInCU: 0x134B6, offset: 0x134B6, size: 0x8, addend: 0x0, symName: __ZNKSt3__116reverse_iteratorIP4MoveEdeB8ue170006Ev, symObjAddr: 0x8898, symBinAddr: 0x100009AF0, symSize: 0x28 }
  - { offsetInCU: 0x134E9, offset: 0x134E9, size: 0x8, addend: 0x0, symName: __ZNSt3__116reverse_iteratorIP4MoveEppB8ue170006Ev, symObjAddr: 0x88C0, symBinAddr: 0x100009B18, symSize: 0x20 }
  - { offsetInCU: 0x1350E, offset: 0x1350E, size: 0x8, addend: 0x0, symName: __ZNSt3__18_IterOpsINS_17_ClassicAlgPolicyEE25__validate_iter_referenceB8ue170006IRNS_16reverse_iteratorIP4MoveEEEEvv, symObjAddr: 0x88E0, symBinAddr: 0x100009B38, symSize: 0x4 }
  - { offsetInCU: 0x1352C, offset: 0x1352C, size: 0x8, addend: 0x0, symName: __ZNSt3__118__unwrap_iter_implINS_16reverse_iteratorIP4MoveEELb0EE8__unwrapB8ue170006ES4_, symObjAddr: 0x88E4, symBinAddr: 0x100009B3C, symSize: 0x24 }
  - { offsetInCU: 0x13554, offset: 0x13554, size: 0x8, addend: 0x0, symName: __ZNSt3__14pairINS_16reverse_iteratorIP4MoveEES4_EC1B8ue170006IS4_S4_LPv0EEEOT_OT0_, symObjAddr: 0x8908, symBinAddr: 0x100009B60, symSize: 0x3C }
  - { offsetInCU: 0x135B1, offset: 0x135B1, size: 0x8, addend: 0x0, symName: __ZNSt3__14pairINS_16reverse_iteratorIP4MoveEES4_EC2B8ue170006IS4_S4_LPv0EEEOT_OT0_, symObjAddr: 0x8944, symBinAddr: 0x100009B9C, symSize: 0x34 }
  - { offsetInCU: 0x1360E, offset: 0x1360E, size: 0x8, addend: 0x0, symName: __ZNSt3__118__unwrap_iter_implINS_16reverse_iteratorIP4MoveEELb0EE8__rewrapB8ue170006ES4_S4_, symObjAddr: 0x8978, symBinAddr: 0x100009BD0, symSize: 0x2C }
  - { offsetInCU: 0x1363B, offset: 0x1363B, size: 0x8, addend: 0x0, symName: __ZNSt3__116reverse_iteratorIP4MoveEC2B8ue170006ES2_, symObjAddr: 0x89A4, symBinAddr: 0x100009BFC, symSize: 0x28 }
  - { offsetInCU: 0x13672, offset: 0x13672, size: 0x8, addend: 0x0, symName: __ZNSt3__114__split_bufferI4MoveRNS_9allocatorIS1_EEED2Ev, symObjAddr: 0x89CC, symBinAddr: 0x100009C24, symSize: 0x8C }
  - { offsetInCU: 0x1369D, offset: 0x1369D, size: 0x8, addend: 0x0, symName: __ZNSt3__114__split_bufferI4MoveRNS_9allocatorIS1_EEE5clearB8ue170006Ev, symObjAddr: 0x8A58, symBinAddr: 0x100009CB0, symSize: 0x28 }
  - { offsetInCU: 0x136C2, offset: 0x136C2, size: 0x8, addend: 0x0, symName: __ZNSt3__116allocator_traitsINS_9allocatorI4MoveEEE10deallocateB8ue170006ERS3_PS2_m, symObjAddr: 0x8A80, symBinAddr: 0x100009CD8, symSize: 0x34 }
  - { offsetInCU: 0x13704, offset: 0x13704, size: 0x8, addend: 0x0, symName: __ZNKSt3__114__split_bufferI4MoveRNS_9allocatorIS1_EEE8capacityB8ue170006Ev, symObjAddr: 0x8AB4, symBinAddr: 0x100009D0C, symSize: 0x40 }
  - { offsetInCU: 0x13729, offset: 0x13729, size: 0x8, addend: 0x0, symName: __ZNSt3__114__split_bufferI4MoveRNS_9allocatorIS1_EEE17__destruct_at_endB8ue170006EPS1_, symObjAddr: 0x8AF4, symBinAddr: 0x100009D4C, symSize: 0x2C }
  - { offsetInCU: 0x1375C, offset: 0x1375C, size: 0x8, addend: 0x0, symName: __ZNSt3__114__split_bufferI4MoveRNS_9allocatorIS1_EEE17__destruct_at_endB8ue170006EPS1_NS_17integral_constantIbLb0EEE, symObjAddr: 0x8B20, symBinAddr: 0x100009D78, symSize: 0x80 }
  - { offsetInCU: 0x1379B, offset: 0x1379B, size: 0x8, addend: 0x0, symName: __ZNSt3__19allocatorI4MoveE10deallocateB8ue170006EPS1_m, symObjAddr: 0x8BA0, symBinAddr: 0x100009DF8, symSize: 0x44 }
  - { offsetInCU: 0x137DC, offset: 0x137DC, size: 0x8, addend: 0x0, symName: __ZNKSt3__114__split_bufferI4MoveRNS_9allocatorIS1_EEE9__end_capB8ue170006Ev, symObjAddr: 0x8BE4, symBinAddr: 0x100009E3C, symSize: 0x28 }
  - { offsetInCU: 0x13801, offset: 0x13801, size: 0x8, addend: 0x0, symName: __ZNKSt3__117__compressed_pairIP4MoveRNS_9allocatorIS1_EEE5firstB8ue170006Ev, symObjAddr: 0x8C0C, symBinAddr: 0x100009E64, symSize: 0x24 }
  - { offsetInCU: 0x13826, offset: 0x13826, size: 0x8, addend: 0x0, symName: __ZNSt3__16vectorI4MoveNS_9allocatorIS1_EEE17__destruct_at_endB8ue170006EPS1_, symObjAddr: 0x8C30, symBinAddr: 0x100009E88, symSize: 0x4C }
  - { offsetInCU: 0x3E, offset: 0x13A2D, size: 0x8, addend: 0x0, symName: __ZN2sf5Color11TransparentE, symObjAddr: 0x333C, symBinAddr: 0x1000135FC, symSize: 0x0 }
  - { offsetInCU: 0x20F2F, offset: 0x3491E, size: 0x8, addend: 0x0, symName: __ZNSt3__112__to_addressB8ue170006IN2sf6VertexEEEPT_S4_, symObjAddr: 0x192C, symBinAddr: 0x10000B774, symSize: 0x14 }
  - { offsetInCU: 0x20F64, offset: 0x34953, size: 0x8, addend: 0x0, symName: __ZNSt3__122__make_exception_guardB8ue170006INS_6vectorI4CardNS_9allocatorIS2_EEE16__destroy_vectorEEENS_28__exception_guard_exceptionsIT_EES8_, symObjAddr: 0x1E60, symBinAddr: 0x10000BB04, symSize: 0x40 }
  - { offsetInCU: 0x20F99, offset: 0x34988, size: 0x8, addend: 0x0, symName: __ZNSt3__130__uninitialized_allocator_copyB8ue170006INS_9allocatorI4CardEEPS2_S4_S4_EET2_RT_T0_T1_S5_, symObjAddr: 0x2788, symBinAddr: 0x10000BD78, symSize: 0x80 }
  - { offsetInCU: 0x21036, offset: 0x34A25, size: 0x8, addend: 0x0, symName: __ZNSt3__135__uninitialized_allocator_copy_implB8ue170006INS_9allocatorI4CardEES2_S2_S2_LPv0EEEPT2_RT_PT0_SA_S6_, symObjAddr: 0x28E0, symBinAddr: 0x10000BDF8, symSize: 0x38 }
  - { offsetInCU: 0x210B7, offset: 0x34AA6, size: 0x8, addend: 0x0, symName: __ZNSt3__14copyB8ue170006IP4CardS2_EET0_T_S4_S3_, symObjAddr: 0x2A20, symBinAddr: 0x10000BE30, symSize: 0x40 }
  - { offsetInCU: 0x21111, offset: 0x34B00, size: 0x8, addend: 0x0, symName: __ZNSt3__16__copyB8ue170006INS_17_ClassicAlgPolicyEP4CardS3_S3_EENS_4pairIT0_T2_EES5_T1_S6_, symObjAddr: 0x2A60, symBinAddr: 0x10000BE70, symSize: 0x44 }
  - { offsetInCU: 0x2117D, offset: 0x34B6C, size: 0x8, addend: 0x0, symName: __ZNSt3__123__dispatch_copy_or_moveB8ue170006INS_17_ClassicAlgPolicyENS_11__copy_loopIS1_EENS_14__copy_trivialEP4CardS6_S6_EENS_4pairIT2_T4_EES8_T3_S9_, symObjAddr: 0x2AA4, symBinAddr: 0x10000BEB4, symSize: 0x44 }
  - { offsetInCU: 0x211FB, offset: 0x34BEA, size: 0x8, addend: 0x0, symName: __ZNSt3__121__unwrap_and_dispatchB8ue170006INS_10__overloadINS_11__copy_loopINS_17_ClassicAlgPolicyEEENS_14__copy_trivialEEEP4CardS8_S8_Li0EEENS_4pairIT0_T2_EESA_T1_SB_, symObjAddr: 0x2AE8, symBinAddr: 0x10000BEF8, symSize: 0xB4 }
  - { offsetInCU: 0x25F41, offset: 0x39930, size: 0x8, addend: 0x0, symName: __ZNK17SolitaireGraphics13drawStockpileERN2sf12RenderWindowERK4Game, symObjAddr: 0x0, symBinAddr: 0x100009ED4, symSize: 0x330 }
  - { offsetInCU: 0x2601E, offset: 0x39A0D, size: 0x8, addend: 0x0, symName: __ZNK11Spritesheet9cardWidthEv, symObjAddr: 0x330, symBinAddr: 0x10000A204, symSize: 0x18 }
  - { offsetInCU: 0x26043, offset: 0x39A32, size: 0x8, addend: 0x0, symName: __ZNK11Spritesheet10cardHeightEv, symObjAddr: 0x348, symBinAddr: 0x10000A21C, symSize: 0x18 }
  - { offsetInCU: 0x26068, offset: 0x39A57, size: 0x8, addend: 0x0, symName: __ZNK4Game10getReserveEv, symObjAddr: 0x360, symBinAddr: 0x10000A234, symSize: 0x18 }
  - { offsetInCU: 0x2608D, offset: 0x39A7C, size: 0x8, addend: 0x0, symName: __ZN2sf7Vector2IfEC1Eff, symObjAddr: 0x3A0, symBinAddr: 0x10000A24C, symSize: 0x3C }
  - { offsetInCU: 0x260D4, offset: 0x39AC3, size: 0x8, addend: 0x0, symName: __ZN2sf6SpriteD1Ev, symObjAddr: 0x3DC, symBinAddr: 0x10000A288, symSize: 0x2C }
  - { offsetInCU: 0x260FF, offset: 0x39AEE, size: 0x8, addend: 0x0, symName: __ZNK4Game12getStockpileEv, symObjAddr: 0x408, symBinAddr: 0x10000A2B4, symSize: 0x18 }
  - { offsetInCU: 0x26124, offset: 0x39B13, size: 0x8, addend: 0x0, symName: __ZNKSt3__16vectorI4CardNS_9allocatorIS1_EEE4backB8ue170006Ev, symObjAddr: 0x420, symBinAddr: 0x10000A2CC, symSize: 0x1C }
  - { offsetInCU: 0x26149, offset: 0x39B38, size: 0x8, addend: 0x0, symName: __ZNK17SolitaireGraphics15drawFoundationsERN2sf12RenderWindowERK4Game, symObjAddr: 0x43C, symBinAddr: 0x10000A2E8, symSize: 0x33C }
  - { offsetInCU: 0x26254, offset: 0x39C43, size: 0x8, addend: 0x0, symName: __ZNK4Game13getFoundationEi, symObjAddr: 0x778, symBinAddr: 0x10000A624, symSize: 0x30 }
  - { offsetInCU: 0x26287, offset: 0x39C76, size: 0x8, addend: 0x0, symName: __ZN2sf7Vector2IfEC1Ev, symObjAddr: 0x7A8, symBinAddr: 0x10000A654, symSize: 0x2C }
  - { offsetInCU: 0x262B0, offset: 0x39C9F, size: 0x8, addend: 0x0, symName: __ZN2sf5ColorC1Ehhhh, symObjAddr: 0x7D4, symBinAddr: 0x10000A680, symSize: 0x4C }
  - { offsetInCU: 0x26340, offset: 0x39D2F, size: 0x8, addend: 0x0, symName: __ZN2sf14RectangleShapeD1Ev, symObjAddr: 0x820, symBinAddr: 0x10000A6CC, symSize: 0x2C }
  - { offsetInCU: 0x2636B, offset: 0x39D5A, size: 0x8, addend: 0x0, symName: __ZNKSt3__16vectorI4CardNS_9allocatorIS1_EEEixB8ue170006Em, symObjAddr: 0x84C, symBinAddr: 0x10000A6F8, symSize: 0x2C }
  - { offsetInCU: 0x263A1, offset: 0x39D90, size: 0x8, addend: 0x0, symName: __ZNK17SolitaireGraphics11drawTableauERN2sf12RenderWindowERK4Game, symObjAddr: 0x8A0, symBinAddr: 0x10000A724, symSize: 0x3A4 }
  - { offsetInCU: 0x2647E, offset: 0x39E6D, size: 0x8, addend: 0x0, symName: __ZNK4Game10getTableauEi, symObjAddr: 0xC44, symBinAddr: 0x10000AAC8, symSize: 0x30 }
  - { offsetInCU: 0x264B1, offset: 0x39EA0, size: 0x8, addend: 0x0, symName: __ZNSt3__16vectorI4CardNS_9allocatorIS1_EEEC1ERKS4_, symObjAddr: 0xC74, symBinAddr: 0x10000AAF8, symSize: 0x34 }
  - { offsetInCU: 0x264EB, offset: 0x39EDA, size: 0x8, addend: 0x0, symName: __ZNK4Card9getFaceUpEv, symObjAddr: 0xCA8, symBinAddr: 0x10000AB2C, symSize: 0x1C }
  - { offsetInCU: 0x26510, offset: 0x39EFF, size: 0x8, addend: 0x0, symName: __ZNK4Card11getLocationEv, symObjAddr: 0xCC4, symBinAddr: 0x10000AB48, symSize: 0x18 }
  - { offsetInCU: 0x26535, offset: 0x39F24, size: 0x8, addend: 0x0, symName: __ZNSt3__16vectorI4CardNS_9allocatorIS1_EEED1B8ue170006Ev, symObjAddr: 0xD0C, symBinAddr: 0x10000AB60, symSize: 0x2C }
  - { offsetInCU: 0x2655E, offset: 0x39F4D, size: 0x8, addend: 0x0, symName: __ZNK17SolitaireGraphics12drawDraggingERN2sf12RenderWindowERK4Game, symObjAddr: 0xD38, symBinAddr: 0x10000AB8C, symSize: 0x2F4 }
  - { offsetInCU: 0x2663E, offset: 0x3A02D, size: 0x8, addend: 0x0, symName: __ZNK17SolitaireGraphics8drawUndoERN2sf12RenderWindowE, symObjAddr: 0x102C, symBinAddr: 0x10000AE80, symSize: 0xFC }
  - { offsetInCU: 0x26690, offset: 0x3A07F, size: 0x8, addend: 0x0, symName: __ZNK11Spritesheet7getUndoEv, symObjAddr: 0x1128, symBinAddr: 0x10000AF7C, symSize: 0x3C }
  - { offsetInCU: 0x266B5, offset: 0x3A0A4, size: 0x8, addend: 0x0, symName: __ZNK17SolitaireGraphics11drawNewDealERN2sf12RenderWindowE, symObjAddr: 0x1164, symBinAddr: 0x10000AFB8, symSize: 0xFC }
  - { offsetInCU: 0x26707, offset: 0x3A0F6, size: 0x8, addend: 0x0, symName: __ZNK11Spritesheet10getNewDealEv, symObjAddr: 0x1260, symBinAddr: 0x10000B0B4, symSize: 0x3C }
  - { offsetInCU: 0x2672C, offset: 0x3A11B, size: 0x8, addend: 0x0, symName: __ZNK17SolitaireGraphics4drawERN2sf12RenderWindowERK4Gameb, symObjAddr: 0x129C, symBinAddr: 0x10000B0F0, symSize: 0x88 }
  - { offsetInCU: 0x2677C, offset: 0x3A16B, size: 0x8, addend: 0x0, symName: __ZN2sf7Vector2IfEC2Eff, symObjAddr: 0x1324, symBinAddr: 0x10000B178, symSize: 0x2C }
  - { offsetInCU: 0x267C3, offset: 0x3A1B2, size: 0x8, addend: 0x0, symName: __ZN2sf6SpriteD2Ev, symObjAddr: 0x1350, symBinAddr: 0x10000B1A4, symSize: 0x38 }
  - { offsetInCU: 0x267EE, offset: 0x3A1DD, size: 0x8, addend: 0x0, symName: __ZThn8_N2sf6SpriteD1Ev, symObjAddr: 0x1388, symBinAddr: 0x10000B1DC, symSize: 0x1C }
  - { offsetInCU: 0x26804, offset: 0x3A1F3, size: 0x8, addend: 0x0, symName: __ZN2sf13TransformableD2Ev, symObjAddr: 0x13A4, symBinAddr: 0x10000B1F8, symSize: 0x14 }
  - { offsetInCU: 0x2682D, offset: 0x3A21C, size: 0x8, addend: 0x0, symName: __ZN2sf8DrawableD2Ev, symObjAddr: 0x13B8, symBinAddr: 0x10000B20C, symSize: 0x14 }
  - { offsetInCU: 0x26856, offset: 0x3A245, size: 0x8, addend: 0x0, symName: __ZNKSt3__15arrayINS_6vectorI4CardNS_9allocatorIS2_EEEELm4EEixB8ue170006Em, symObjAddr: 0x13CC, symBinAddr: 0x10000B220, symSize: 0x28 }
  - { offsetInCU: 0x26889, offset: 0x3A278, size: 0x8, addend: 0x0, symName: __ZN2sf7Vector2IfEC2Ev, symObjAddr: 0x13F4, symBinAddr: 0x10000B248, symSize: 0x20 }
  - { offsetInCU: 0x268B2, offset: 0x3A2A1, size: 0x8, addend: 0x0, symName: __ZN2sf5ColorC2Ehhhh, symObjAddr: 0x1414, symBinAddr: 0x10000B268, symSize: 0x44 }
  - { offsetInCU: 0x26915, offset: 0x3A304, size: 0x8, addend: 0x0, symName: __ZN2sf14RectangleShapeD2Ev, symObjAddr: 0x1458, symBinAddr: 0x10000B2AC, symSize: 0x2C }
  - { offsetInCU: 0x26940, offset: 0x3A32F, size: 0x8, addend: 0x0, symName: __ZThn8_N2sf14RectangleShapeD1Ev, symObjAddr: 0x1484, symBinAddr: 0x10000B2D8, symSize: 0x1C }
  - { offsetInCU: 0x26956, offset: 0x3A345, size: 0x8, addend: 0x0, symName: __ZN2sf5ShapeD2Ev, symObjAddr: 0x14A0, symBinAddr: 0x10000B2F4, symSize: 0x68 }
  - { offsetInCU: 0x26981, offset: 0x3A370, size: 0x8, addend: 0x0, symName: __ZN2sf11VertexArrayD1Ev, symObjAddr: 0x1508, symBinAddr: 0x10000B35C, symSize: 0x2C }
  - { offsetInCU: 0x269AC, offset: 0x3A39B, size: 0x8, addend: 0x0, symName: __ZN2sf11VertexArrayD2Ev, symObjAddr: 0x1534, symBinAddr: 0x10000B388, symSize: 0x48 }
  - { offsetInCU: 0x269D7, offset: 0x3A3C6, size: 0x8, addend: 0x0, symName: __ZNSt3__16vectorIN2sf6VertexENS_9allocatorIS2_EEED1B8ue170006Ev, symObjAddr: 0x157C, symBinAddr: 0x10000B3D0, symSize: 0x2C }
  - { offsetInCU: 0x26A00, offset: 0x3A3EF, size: 0x8, addend: 0x0, symName: __ZNSt3__16vectorIN2sf6VertexENS_9allocatorIS2_EEED2B8ue170006Ev, symObjAddr: 0x15A8, symBinAddr: 0x10000B3FC, symSize: 0x44 }
  - { offsetInCU: 0x26A29, offset: 0x3A418, size: 0x8, addend: 0x0, symName: __ZNSt3__16vectorIN2sf6VertexENS_9allocatorIS2_EEE16__destroy_vectorC1B8ue170006ERS5_, symObjAddr: 0x15EC, symBinAddr: 0x10000B440, symSize: 0x34 }
  - { offsetInCU: 0x26A61, offset: 0x3A450, size: 0x8, addend: 0x0, symName: __ZNSt3__16vectorIN2sf6VertexENS_9allocatorIS2_EEE16__destroy_vectorclB8ue170006Ev, symObjAddr: 0x162C, symBinAddr: 0x10000B474, symSize: 0x90 }
  - { offsetInCU: 0x26A86, offset: 0x3A475, size: 0x8, addend: 0x0, symName: __ZNSt3__16vectorIN2sf6VertexENS_9allocatorIS2_EEE16__destroy_vectorC2B8ue170006ERS5_, symObjAddr: 0x16BC, symBinAddr: 0x10000B504, symSize: 0x20 }
  - { offsetInCU: 0x26ABE, offset: 0x3A4AD, size: 0x8, addend: 0x0, symName: __ZNSt3__16vectorIN2sf6VertexENS_9allocatorIS2_EEE7__clearB8ue170006Ev, symObjAddr: 0x16DC, symBinAddr: 0x10000B524, symSize: 0x28 }
  - { offsetInCU: 0x26AE3, offset: 0x3A4D2, size: 0x8, addend: 0x0, symName: __ZNKSt3__16vectorIN2sf6VertexENS_9allocatorIS2_EEE17__annotate_deleteB8ue170006Ev, symObjAddr: 0x1704, symBinAddr: 0x10000B54C, symSize: 0xD4 }
  - { offsetInCU: 0x26B08, offset: 0x3A4F7, size: 0x8, addend: 0x0, symName: __ZNSt3__116allocator_traitsINS_9allocatorIN2sf6VertexEEEE10deallocateB8ue170006ERS4_PS3_m, symObjAddr: 0x17D8, symBinAddr: 0x10000B620, symSize: 0x34 }
  - { offsetInCU: 0x26B4A, offset: 0x3A539, size: 0x8, addend: 0x0, symName: __ZNSt3__16vectorIN2sf6VertexENS_9allocatorIS2_EEE7__allocB8ue170006Ev, symObjAddr: 0x180C, symBinAddr: 0x10000B654, symSize: 0x28 }
  - { offsetInCU: 0x26B6F, offset: 0x3A55E, size: 0x8, addend: 0x0, symName: __ZNKSt3__16vectorIN2sf6VertexENS_9allocatorIS2_EEE8capacityB8ue170006Ev, symObjAddr: 0x1834, symBinAddr: 0x10000B67C, symSize: 0x40 }
  - { offsetInCU: 0x26B94, offset: 0x3A583, size: 0x8, addend: 0x0, symName: __ZNSt3__16vectorIN2sf6VertexENS_9allocatorIS2_EEE22__base_destruct_at_endB8ue170006EPS2_, symObjAddr: 0x1874, symBinAddr: 0x10000B6BC, symSize: 0x8C }
  - { offsetInCU: 0x26BD7, offset: 0x3A5C6, size: 0x8, addend: 0x0, symName: __ZNSt3__116allocator_traitsINS_9allocatorIN2sf6VertexEEEE7destroyB8ue170006IS3_vEEvRS4_PT_, symObjAddr: 0x1900, symBinAddr: 0x10000B748, symSize: 0x2C }
  - { offsetInCU: 0x26C14, offset: 0x3A603, size: 0x8, addend: 0x0, symName: __ZNSt3__19allocatorIN2sf6VertexEE7destroyB8ue170006EPS2_, symObjAddr: 0x1940, symBinAddr: 0x10000B788, symSize: 0x14 }
  - { offsetInCU: 0x26C47, offset: 0x3A636, size: 0x8, addend: 0x0, symName: __ZNKSt3__16vectorIN2sf6VertexENS_9allocatorIS2_EEE31__annotate_contiguous_containerB8ue170006EPKvS7_S7_S7_, symObjAddr: 0x1954, symBinAddr: 0x10000B79C, symSize: 0x20 }
  - { offsetInCU: 0x26C98, offset: 0x3A687, size: 0x8, addend: 0x0, symName: __ZNKSt3__16vectorIN2sf6VertexENS_9allocatorIS2_EEE4dataB8ue170006Ev, symObjAddr: 0x1974, symBinAddr: 0x10000B7BC, symSize: 0x28 }
  - { offsetInCU: 0x26CBD, offset: 0x3A6AC, size: 0x8, addend: 0x0, symName: __ZNKSt3__16vectorIN2sf6VertexENS_9allocatorIS2_EEE4sizeB8ue170006Ev, symObjAddr: 0x199C, symBinAddr: 0x10000B7E4, symSize: 0x28 }
  - { offsetInCU: 0x26CE2, offset: 0x3A6D1, size: 0x8, addend: 0x0, symName: __ZNSt3__19allocatorIN2sf6VertexEE10deallocateB8ue170006EPS2_m, symObjAddr: 0x19C4, symBinAddr: 0x10000B80C, symSize: 0x44 }
  - { offsetInCU: 0x26D23, offset: 0x3A712, size: 0x8, addend: 0x0, symName: __ZNSt3__117__compressed_pairIPN2sf6VertexENS_9allocatorIS2_EEE6secondB8ue170006Ev, symObjAddr: 0x1B30, symBinAddr: 0x10000B850, symSize: 0x24 }
  - { offsetInCU: 0x26D48, offset: 0x3A737, size: 0x8, addend: 0x0, symName: __ZNSt3__122__compressed_pair_elemINS_9allocatorIN2sf6VertexEEELi1ELb1EE5__getB8ue170006Ev, symObjAddr: 0x1B54, symBinAddr: 0x10000B874, symSize: 0x14 }
  - { offsetInCU: 0x26D6D, offset: 0x3A75C, size: 0x8, addend: 0x0, symName: __ZNKSt3__16vectorIN2sf6VertexENS_9allocatorIS2_EEE9__end_capB8ue170006Ev, symObjAddr: 0x1B68, symBinAddr: 0x10000B888, symSize: 0x28 }
  - { offsetInCU: 0x26D92, offset: 0x3A781, size: 0x8, addend: 0x0, symName: __ZNKSt3__117__compressed_pairIPN2sf6VertexENS_9allocatorIS2_EEE5firstB8ue170006Ev, symObjAddr: 0x1B90, symBinAddr: 0x10000B8B0, symSize: 0x24 }
  - { offsetInCU: 0x26DB7, offset: 0x3A7A6, size: 0x8, addend: 0x0, symName: __ZNKSt3__122__compressed_pair_elemIPN2sf6VertexELi0ELb0EE5__getB8ue170006Ev, symObjAddr: 0x1BB4, symBinAddr: 0x10000B8D4, symSize: 0x14 }
  - { offsetInCU: 0x26DDC, offset: 0x3A7CB, size: 0x8, addend: 0x0, symName: __ZNKSt3__15arrayINS_6vectorI4CardNS_9allocatorIS2_EEEELm7EEixB8ue170006Em, symObjAddr: 0x1BC8, symBinAddr: 0x10000B8E8, symSize: 0x28 }
  - { offsetInCU: 0x26E0F, offset: 0x3A7FE, size: 0x8, addend: 0x0, symName: __ZNSt3__16vectorI4CardNS_9allocatorIS1_EEEC2ERKS4_, symObjAddr: 0x1BF0, symBinAddr: 0x10000B910, symSize: 0x94 }
  - { offsetInCU: 0x26E53, offset: 0x3A842, size: 0x8, addend: 0x0, symName: __ZNSt3__116allocator_traitsINS_9allocatorI4CardEEE37select_on_container_copy_constructionB8ue170006IS3_vvEES3_RKS3_, symObjAddr: 0x1C84, symBinAddr: 0x10000B9A4, symSize: 0x10 }
  - { offsetInCU: 0x26E8C, offset: 0x3A87B, size: 0x8, addend: 0x0, symName: __ZNSt3__117__compressed_pairIP4CardNS_9allocatorIS1_EEEC1B8ue170006IDnS4_EEOT_OT0_, symObjAddr: 0x1CBC, symBinAddr: 0x10000B9B4, symSize: 0x3C }
  - { offsetInCU: 0x26EE3, offset: 0x3A8D2, size: 0x8, addend: 0x0, symName: __ZNSt3__16vectorI4CardNS_9allocatorIS1_EEE16__init_with_sizeB8ue170006IPS1_S6_EEvT_T0_m, symObjAddr: 0x1CF8, symBinAddr: 0x10000B9F0, symSize: 0xB8 }
  - { offsetInCU: 0x26F56, offset: 0x3A945, size: 0x8, addend: 0x0, symName: __ZNSt3__117__compressed_pairIP4CardNS_9allocatorIS1_EEEC2B8ue170006IDnS4_EEOT_OT0_, symObjAddr: 0x1DE8, symBinAddr: 0x10000BAA8, symSize: 0x44 }
  - { offsetInCU: 0x26FAD, offset: 0x3A99C, size: 0x8, addend: 0x0, symName: __ZNSt3__122__compressed_pair_elemINS_9allocatorI4CardEELi1ELb1EEC2B8ue170006IS3_vEEOT_, symObjAddr: 0x1E48, symBinAddr: 0x10000BAEC, symSize: 0x18 }
  - { offsetInCU: 0x26FEE, offset: 0x3A9DD, size: 0x8, addend: 0x0, symName: __ZNSt3__16vectorI4CardNS_9allocatorIS1_EEE16__destroy_vectorC1B8ue170006ERS4_, symObjAddr: 0x1EA0, symBinAddr: 0x10000BB44, symSize: 0x34 }
  - { offsetInCU: 0x27026, offset: 0x3AA15, size: 0x8, addend: 0x0, symName: __ZNSt3__16vectorI4CardNS_9allocatorIS1_EEE11__vallocateB8ue170006Em, symObjAddr: 0x1ED4, symBinAddr: 0x10000BB78, symSize: 0xB4 }
  - { offsetInCU: 0x27069, offset: 0x3AA58, size: 0x8, addend: 0x0, symName: __ZNSt3__16vectorI4CardNS_9allocatorIS1_EEE18__construct_at_endIPS1_S6_EEvT_T0_m, symObjAddr: 0x1F88, symBinAddr: 0x10000BC2C, symSize: 0x8C }
  - { offsetInCU: 0x270DE, offset: 0x3AACD, size: 0x8, addend: 0x0, symName: __ZNSt3__128__exception_guard_exceptionsINS_6vectorI4CardNS_9allocatorIS2_EEE16__destroy_vectorEE10__completeB8ue170006Ev, symObjAddr: 0x2014, symBinAddr: 0x10000BCB8, symSize: 0x1C }
  - { offsetInCU: 0x27103, offset: 0x3AAF2, size: 0x8, addend: 0x0, symName: __ZNSt3__128__exception_guard_exceptionsINS_6vectorI4CardNS_9allocatorIS2_EEE16__destroy_vectorEED1B8ue170006Ev, symObjAddr: 0x2030, symBinAddr: 0x10000BCD4, symSize: 0x2C }
  - { offsetInCU: 0x2712C, offset: 0x3AB1B, size: 0x8, addend: 0x0, symName: __ZNSt3__128__exception_guard_exceptionsINS_6vectorI4CardNS_9allocatorIS2_EEE16__destroy_vectorEEC1B8ue170006ES6_, symObjAddr: 0x205C, symBinAddr: 0x10000BD00, symSize: 0x34 }
  - { offsetInCU: 0x27163, offset: 0x3AB52, size: 0x8, addend: 0x0, symName: __ZNSt3__128__exception_guard_exceptionsINS_6vectorI4CardNS_9allocatorIS2_EEE16__destroy_vectorEEC2B8ue170006ES6_, symObjAddr: 0x2090, symBinAddr: 0x10000BD34, symSize: 0x24 }
  - { offsetInCU: 0x2719A, offset: 0x3AB89, size: 0x8, addend: 0x0, symName: __ZNSt3__16vectorI4CardNS_9allocatorIS1_EEE16__destroy_vectorC2B8ue170006ERS4_, symObjAddr: 0x20B4, symBinAddr: 0x10000BD58, symSize: 0x20 }
  - { offsetInCU: 0x271F5, offset: 0x3ABE4, size: 0x8, addend: 0x0, symName: __ZNKSt3__114__copy_trivialclB8ue170006I4CardS2_Li0EEENS_4pairIPT_PT0_EES5_S5_S7_, symObjAddr: 0x2B9C, symBinAddr: 0x10000BFAC, symSize: 0x48 }
  - { offsetInCU: 0x2725C, offset: 0x3AC4B, size: 0x8, addend: 0x0, symName: __ZNSt3__128__exception_guard_exceptionsINS_6vectorI4CardNS_9allocatorIS2_EEE16__destroy_vectorEED2B8ue170006Ev, symObjAddr: 0x2E44, symBinAddr: 0x10000BFF4, symSize: 0x50 }
  - { offsetInCU: 0x27285, offset: 0x3AC74, size: 0x8, addend: 0x0, symName: __ZNSt3__16vectorI4CardNS_9allocatorIS1_EEE16__destroy_vectorclB8ue170006Ev, symObjAddr: 0x2E94, symBinAddr: 0x10000C044, symSize: 0x90 }
  - { offsetInCU: 0x272AA, offset: 0x3AC99, size: 0x8, addend: 0x0, symName: __ZNSt3__16vectorI4CardNS_9allocatorIS1_EEED2B8ue170006Ev, symObjAddr: 0x3164, symBinAddr: 0x10000C0D4, symSize: 0x40 }
  - { offsetInCU: 0x3F, offset: 0x3AD78, size: 0x8, addend: 0x0, symName: __mouseWasDown, symObjAddr: 0xAAD19, symBinAddr: 0x1000189D8, symSize: 0x0 }
  - { offsetInCU: 0xF389, offset: 0x4A0C2, size: 0x8, addend: 0x0, symName: __ZN2sfgeENS_4TimeES0_, symObjAddr: 0xEF0, symBinAddr: 0x10000CE30, symSize: 0x58 }
  - { offsetInCU: 0x11E0C, offset: 0x4CB45, size: 0x8, addend: 0x0, symName: __ZN5Input10getHoveredERN2sf12RenderWindowE, symObjAddr: 0x0, symBinAddr: 0x10000C114, symSize: 0xBA0 }
  - { offsetInCU: 0x12083, offset: 0x4CDBC, size: 0x8, addend: 0x0, symName: __ZN2sf4RectIfEC1ENS_7Vector2IfEES3_, symObjAddr: 0xC54, symBinAddr: 0x10000CCB4, symSize: 0x4C }
  - { offsetInCU: 0x120CA, offset: 0x4CE03, size: 0x8, addend: 0x0, symName: __ZNK2sf4RectIfE8containsENS_7Vector2IfEE, symObjAddr: 0xCA0, symBinAddr: 0x10000CD00, symSize: 0x130 }
  - { offsetInCU: 0x1219A, offset: 0x4CED3, size: 0x8, addend: 0x0, symName: __ZN2sf4RectIfEC1Ev, symObjAddr: 0x10F0, symBinAddr: 0x10000CE88, symSize: 0x2C }
  - { offsetInCU: 0x121C3, offset: 0x4CEFC, size: 0x8, addend: 0x0, symName: __ZN2sf4RectIfEC2ENS_7Vector2IfEES3_, symObjAddr: 0x11A0, symBinAddr: 0x10000CEB4, symSize: 0x34 }
  - { offsetInCU: 0x12214, offset: 0x4CF4D, size: 0x8, addend: 0x0, symName: __ZZNK2sf4RectIfE8containsENS_7Vector2IfEEENKUlffE_clEff, symObjAddr: 0x11D4, symBinAddr: 0x10000CEE8, symSize: 0x4C }
  - { offsetInCU: 0x12263, offset: 0x4CF9C, size: 0x8, addend: 0x0, symName: __ZZNK2sf4RectIfE8containsENS_7Vector2IfEEENKUlffE0_clEff, symObjAddr: 0x1220, symBinAddr: 0x10000CF34, symSize: 0x4C }
  - { offsetInCU: 0x122A8, offset: 0x4CFE1, size: 0x8, addend: 0x0, symName: __ZNK2sf4Time14asMicrosecondsEv, symObjAddr: 0x12C8, symBinAddr: 0x10000CF80, symSize: 0x24 }
  - { offsetInCU: 0x122CE, offset: 0x4D007, size: 0x8, addend: 0x0, symName: __ZNKSt3__16chrono8durationIxNS_5ratioILl1ELl1000000EEEE5countB8ue170006Ev, symObjAddr: 0x12EC, symBinAddr: 0x10000CFA4, symSize: 0x18 }
  - { offsetInCU: 0x122F3, offset: 0x4D02C, size: 0x8, addend: 0x0, symName: __ZN2sf4RectIfEC2Ev, symObjAddr: 0x1354, symBinAddr: 0x10000CFBC, symSize: 0x40 }
  - { offsetInCU: 0xA202, offset: 0x57292, size: 0x8, addend: 0x0, symName: __ZNSt3__16chrono13duration_castB8ue170006INS0_8durationIxNS_5ratioILl1ELl1000000EEEEExNS3_ILl1ELl1000EEEEENS_9enable_ifIXsr13__is_durationIT_EE5valueES8_E4typeERKNS2_IT0_T1_EE, symObjAddr: 0x1064, symBinAddr: 0x10000DEAC, symSize: 0x30 }
  - { offsetInCU: 0x14920, offset: 0x619B0, size: 0x8, addend: 0x0, symName: __ZNSt3__134__libcpp_atomic_refcount_decrementB8ue170006IlEET_RS1_, symObjAddr: 0x3174, symBinAddr: 0x10000F4D0, symSize: 0x30 }
  - { offsetInCU: 0x14955, offset: 0x619E5, size: 0x8, addend: 0x0, symName: __ZNSt3__112__to_addressB8ue170006IhEEPT_S2_, symObjAddr: 0x34F8, symBinAddr: 0x10000F854, symSize: 0x14 }
  - { offsetInCU: 0x14A4A, offset: 0x61ADA, size: 0x8, addend: 0x0, symName: __ZNSt3__112__to_addressB8ue170006IN2sf4Font3RowEEEPT_S5_, symObjAddr: 0x3DAC, symBinAddr: 0x100010108, symSize: 0x14 }
  - { offsetInCU: 0x14B3F, offset: 0x61BCF, size: 0x8, addend: 0x0, symName: __ZNSt3__17launderB8ue170006INS_4pairIKyN2sf5GlyphEEEEEPT_S7_, symObjAddr: 0x41E0, symBinAddr: 0x10001053C, symSize: 0x24 }
  - { offsetInCU: 0x14B76, offset: 0x61C06, size: 0x8, addend: 0x0, symName: __ZNSt3__19__launderB8ue170006INS_4pairIKyN2sf5GlyphEEEEEPT_S7_, symObjAddr: 0x4204, symBinAddr: 0x100010560, symSize: 0x14 }
  - { offsetInCU: 0x14BAD, offset: 0x61C3D, size: 0x8, addend: 0x0, symName: __ZNSt3__17launderB8ue170006INS_4pairIKjN2sf4Font4PageEEEEEPT_S8_, symObjAddr: 0x4528, symBinAddr: 0x100010884, symSize: 0x24 }
  - { offsetInCU: 0x14BE4, offset: 0x61C74, size: 0x8, addend: 0x0, symName: __ZNSt3__19__launderB8ue170006INS_4pairIKjN2sf4Font4PageEEEEEPT_S8_, symObjAddr: 0x454C, symBinAddr: 0x1000108A8, symSize: 0x14 }
  - { offsetInCU: 0x14C1B, offset: 0x61CAB, size: 0x8, addend: 0x0, symName: __ZNSt3__18distanceB8ue170006IPKcEENS_15iterator_traitsIT_E15difference_typeES4_S4_, symObjAddr: 0x4DF0, symBinAddr: 0x10001109C, symSize: 0x2C }
  - { offsetInCU: 0x14C5E, offset: 0x61CEE, size: 0x8, addend: 0x0, symName: __ZNSt3__110__distanceB8ue170006IPKcEENS_15iterator_traitsIT_E15difference_typeES4_S4_NS_26random_access_iterator_tagE, symObjAddr: 0x5154, symBinAddr: 0x10001133C, symSize: 0x20 }
  - { offsetInCU: 0x14CAB, offset: 0x61D3B, size: 0x8, addend: 0x0, symName: __ZNSt3__121__is_pointer_in_rangeB8ue170006IccLi0EEEbPKT_S3_PKT0_, symObjAddr: 0x5174, symBinAddr: 0x10001135C, symSize: 0x68 }
  - { offsetInCU: 0x14D50, offset: 0x61DE0, size: 0x8, addend: 0x0, symName: __ZNSt3__119__allocate_at_leastB8ue170006INS_9allocatorIcEEEENS_19__allocation_resultINS_16allocator_traitsIT_E7pointerEEERS5_m, symObjAddr: 0x56C0, symBinAddr: 0x100011844, symSize: 0x40 }
  - { offsetInCU: 0x14D93, offset: 0x61E23, size: 0x8, addend: 0x0, symName: __ZNSt3__112__to_addressB8ue170006IKcEEPT_S3_, symObjAddr: 0x5B2C, symBinAddr: 0x100011ACC, symSize: 0x14 }
  - { offsetInCU: 0x14DFB, offset: 0x61E8B, size: 0x8, addend: 0x0, symName: __ZNSt3__117holds_alternativeB8ue170006IN2sf5Event6ClosedEJS3_NS2_7ResizedENS2_9FocusLostENS2_11FocusGainedENS2_11TextEnteredENS2_10KeyPressedENS2_11KeyReleasedENS2_18MouseWheelScrolledENS2_18MouseButtonPressedENS2_19MouseButtonReleasedENS2_10MouseMovedENS2_13MouseMovedRawENS2_12MouseEnteredENS2_9MouseLeftENS2_21JoystickButtonPressedENS2_22JoystickButtonReleasedENS2_13JoystickMovedENS2_17JoystickConnectedENS2_20JoystickDisconnectedENS2_10TouchBeganENS2_10TouchMovedENS2_10TouchEndedENS2_13SensorChangedEEEEbRKNS_7variantIJDpT0_EEE, symObjAddr: 0x5BF8, symBinAddr: 0x100011B98, symSize: 0x28 }
  - { offsetInCU: 0x14EAB, offset: 0x61F3B, size: 0x8, addend: 0x0, symName: __ZNSt3__119__holds_alternativeB8ue170006ILm0EJN2sf5Event6ClosedENS2_7ResizedENS2_9FocusLostENS2_11FocusGainedENS2_11TextEnteredENS2_10KeyPressedENS2_11KeyReleasedENS2_18MouseWheelScrolledENS2_18MouseButtonPressedENS2_19MouseButtonReleasedENS2_10MouseMovedENS2_13MouseMovedRawENS2_12MouseEnteredENS2_9MouseLeftENS2_21JoystickButtonPressedENS2_22JoystickButtonReleasedENS2_13JoystickMovedENS2_17JoystickConnectedENS2_20JoystickDisconnectedENS2_10TouchBeganENS2_10TouchMovedENS2_10TouchEndedENS2_13SensorChangedEEEEbRKNS_7variantIJDpT0_EEE, symObjAddr: 0x5C20, symBinAddr: 0x100011BC0, symSize: 0x30 }
  - { offsetInCU: 0x17308, offset: 0x64398, size: 0x8, addend: 0x0, symName: __ZN2sf12millisecondsEi, symObjAddr: 0xD84, symBinAddr: 0x10000DBCC, symSize: 0x40 }
  - { offsetInCU: 0x17F77, offset: 0x65007, size: 0x8, addend: 0x0, symName: __ZNKSt3__16chrono15__duration_castINS0_8durationIxNS_5ratioILl1ELl1000EEEEENS2_IxNS3_ILl1ELl1000000EEEEENS3_ILl1000ELl1EEELb0ELb1EEclB8ue170006ERKS5_, symObjAddr: 0x10AC, symBinAddr: 0x10000DEDC, symSize: 0x48 }
  - { offsetInCU: 0x1A6B0, offset: 0x67740, size: 0x8, addend: 0x0, symName: _main, symObjAddr: 0x0, symBinAddr: 0x10000CFFC, symSize: 0x504 }
  - { offsetInCU: 0x1A73A, offset: 0x677CA, size: 0x8, addend: 0x0, symName: __ZN2sf7Vector2IjEC1Ejj, symObjAddr: 0x504, symBinAddr: 0x10000D500, symSize: 0x3C }
  - { offsetInCU: 0x1A781, offset: 0x67811, size: 0x8, addend: 0x0, symName: __ZN2sf6StringD1Ev, symObjAddr: 0x540, symBinAddr: 0x10000D53C, symSize: 0x2C }
  - { offsetInCU: 0x1A97B, offset: 0x67A0B, size: 0x8, addend: 0x0, symName: __ZN11SpritesheetC1Ev, symObjAddr: 0x56C, symBinAddr: 0x10000D568, symSize: 0x2C }
  - { offsetInCU: 0x1A9A6, offset: 0x67A36, size: 0x8, addend: 0x0, symName: __ZN2sf4FontC1Ev, symObjAddr: 0x598, symBinAddr: 0x10000D594, symSize: 0x2C }
  - { offsetInCU: 0x1A9EA, offset: 0x67A7A, size: 0x8, addend: 0x0, symName: __ZNSt3__14__fs10filesystem4pathC1B8ue170006IA17_cvEERKT_NS2_6formatE, symObjAddr: 0x5F8, symBinAddr: 0x10000D5C0, symSize: 0x3C }
  - { offsetInCU: 0x1AA37, offset: 0x67AC7, size: 0x8, addend: 0x0, symName: __ZNSt3__14__fs10filesystem4pathD1B8ue170006Ev, symObjAddr: 0x634, symBinAddr: 0x10000D5FC, symSize: 0x2C }
  - { offsetInCU: 0x1AD13, offset: 0x67DA3, size: 0x8, addend: 0x0, symName: __ZN4GameC1Ev, symObjAddr: 0x660, symBinAddr: 0x10000D628, symSize: 0x2C }
  - { offsetInCU: 0x1AF7D, offset: 0x6800D, size: 0x8, addend: 0x0, symName: __ZN17SolitaireGraphicsC1ER11SpritesheetRN2sf4FontER4Game, symObjAddr: 0x68C, symBinAddr: 0x10000D654, symSize: 0x44 }
  - { offsetInCU: 0x1B060, offset: 0x680F0, size: 0x8, addend: 0x0, symName: __ZN5InputC1ER4GameR17SolitaireGraphicsR11Spritesheet, symObjAddr: 0x6D0, symBinAddr: 0x10000D698, symSize: 0x44 }
  - { offsetInCU: 0x1B0B3, offset: 0x68143, size: 0x8, addend: 0x0, symName: __ZNKSt3__18optionalIN2sf5EventEEcvbB8ue170006Ev, symObjAddr: 0x714, symBinAddr: 0x10000D6DC, symSize: 0x28 }
  - { offsetInCU: 0x1B0D8, offset: 0x68168, size: 0x8, addend: 0x0, symName: __ZNKSt3__18optionalIN2sf5EventEEptB8ue170006Ev, symObjAddr: 0x73C, symBinAddr: 0x10000D704, symSize: 0x24 }
  - { offsetInCU: 0x1B102, offset: 0x68192, size: 0x8, addend: 0x0, symName: __ZNK2sf5Event2isINS0_6ClosedEEEbv, symObjAddr: 0x760, symBinAddr: 0x10000D728, symSize: 0x28 }
  - { offsetInCU: 0x1B130, offset: 0x681C0, size: 0x8, addend: 0x0, symName: __ZN17SolitaireGraphicsD1Ev, symObjAddr: 0x7D4, symBinAddr: 0x10000D750, symSize: 0x2C }
  - { offsetInCU: 0x1B15B, offset: 0x681EB, size: 0x8, addend: 0x0, symName: __ZN4GameD1Ev, symObjAddr: 0x800, symBinAddr: 0x10000D77C, symSize: 0x2C }
  - { offsetInCU: 0x1B186, offset: 0x68216, size: 0x8, addend: 0x0, symName: __ZN2sf4FontD1Ev, symObjAddr: 0x82C, symBinAddr: 0x10000D7A8, symSize: 0x2C }
  - { offsetInCU: 0x1B1B1, offset: 0x68241, size: 0x8, addend: 0x0, symName: __ZN11SpritesheetD1Ev, symObjAddr: 0x858, symBinAddr: 0x10000D7D4, symSize: 0x2C }
  - { offsetInCU: 0x1B1DC, offset: 0x6826C, size: 0x8, addend: 0x0, symName: __ZN2sf12RenderWindowD1Ev, symObjAddr: 0x884, symBinAddr: 0x10000D800, symSize: 0x2C }
  - { offsetInCU: 0x1B207, offset: 0x68297, size: 0x8, addend: 0x0, symName: __ZN2sf7Vector2IjEC2Ejj, symObjAddr: 0x8B0, symBinAddr: 0x10000D82C, symSize: 0x2C }
  - { offsetInCU: 0x1B24E, offset: 0x682DE, size: 0x8, addend: 0x0, symName: __ZN2sf6StringD2Ev, symObjAddr: 0x8DC, symBinAddr: 0x10000D858, symSize: 0x2C }
  - { offsetInCU: 0x1B279, offset: 0x68309, size: 0x8, addend: 0x0, symName: __ZNSt3__112basic_stringIDiNS_11char_traitsIDiEENS_9allocatorIDiEEED1Ev, symObjAddr: 0x908, symBinAddr: 0x10000D884, symSize: 0x2C }
  - { offsetInCU: 0x1B2A2, offset: 0x68332, size: 0x8, addend: 0x0, symName: __ZNSt3__112basic_stringIDiNS_11char_traitsIDiEENS_9allocatorIDiEEED2Ev, symObjAddr: 0x934, symBinAddr: 0x10000D8B0, symSize: 0x74 }
  - { offsetInCU: 0x1B2CB, offset: 0x6835B, size: 0x8, addend: 0x0, symName: __ZNKSt3__112basic_stringIDiNS_11char_traitsIDiEENS_9allocatorIDiEEE9__is_longB8ue170006Ev, symObjAddr: 0x9A8, symBinAddr: 0x10000D924, symSize: 0x38 }
  - { offsetInCU: 0x1B2F0, offset: 0x68380, size: 0x8, addend: 0x0, symName: __ZNSt3__116allocator_traitsINS_9allocatorIDiEEE10deallocateB8ue170006ERS2_PDim, symObjAddr: 0x9E0, symBinAddr: 0x10000D95C, symSize: 0x34 }
  - { offsetInCU: 0x1B332, offset: 0x683C2, size: 0x8, addend: 0x0, symName: __ZNSt3__112basic_stringIDiNS_11char_traitsIDiEENS_9allocatorIDiEEE7__allocB8ue170006Ev, symObjAddr: 0xA14, symBinAddr: 0x10000D990, symSize: 0x24 }
  - { offsetInCU: 0x1B357, offset: 0x683E7, size: 0x8, addend: 0x0, symName: __ZNSt3__112basic_stringIDiNS_11char_traitsIDiEENS_9allocatorIDiEEE18__get_long_pointerB8ue170006Ev, symObjAddr: 0xA38, symBinAddr: 0x10000D9B4, symSize: 0x28 }
  - { offsetInCU: 0x1B37C, offset: 0x6840C, size: 0x8, addend: 0x0, symName: __ZNKSt3__112basic_stringIDiNS_11char_traitsIDiEENS_9allocatorIDiEEE14__get_long_capB8ue170006Ev, symObjAddr: 0xA60, symBinAddr: 0x10000D9DC, symSize: 0x30 }
  - { offsetInCU: 0x1B3A1, offset: 0x68431, size: 0x8, addend: 0x0, symName: __ZNKSt3__117__compressed_pairINS_12basic_stringIDiNS_11char_traitsIDiEENS_9allocatorIDiEEE5__repES5_E5firstB8ue170006Ev, symObjAddr: 0xA90, symBinAddr: 0x10000DA0C, symSize: 0x24 }
  - { offsetInCU: 0x1B3C6, offset: 0x68456, size: 0x8, addend: 0x0, symName: __ZNKSt3__122__compressed_pair_elemINS_12basic_stringIDiNS_11char_traitsIDiEENS_9allocatorIDiEEE5__repELi0ELb0EE5__getB8ue170006Ev, symObjAddr: 0xAB4, symBinAddr: 0x10000DA30, symSize: 0x14 }
  - { offsetInCU: 0x1B3EB, offset: 0x6847B, size: 0x8, addend: 0x0, symName: __ZNSt3__19allocatorIDiE10deallocateB8ue170006EPDim, symObjAddr: 0xAC8, symBinAddr: 0x10000DA44, symSize: 0x40 }
  - { offsetInCU: 0x1B42C, offset: 0x684BC, size: 0x8, addend: 0x0, symName: __ZNSt3__117__compressed_pairINS_12basic_stringIDiNS_11char_traitsIDiEENS_9allocatorIDiEEE5__repES5_E6secondB8ue170006Ev, symObjAddr: 0xC3C, symBinAddr: 0x10000DA84, symSize: 0x24 }
  - { offsetInCU: 0x1B451, offset: 0x684E1, size: 0x8, addend: 0x0, symName: __ZNSt3__122__compressed_pair_elemINS_9allocatorIDiEELi1ELb1EE5__getB8ue170006Ev, symObjAddr: 0xC60, symBinAddr: 0x10000DAA8, symSize: 0x14 }
  - { offsetInCU: 0x1B476, offset: 0x68506, size: 0x8, addend: 0x0, symName: __ZNSt3__117__compressed_pairINS_12basic_stringIDiNS_11char_traitsIDiEENS_9allocatorIDiEEE5__repES5_E5firstB8ue170006Ev, symObjAddr: 0xC74, symBinAddr: 0x10000DABC, symSize: 0x24 }
  - { offsetInCU: 0x1B49B, offset: 0x6852B, size: 0x8, addend: 0x0, symName: __ZNSt3__122__compressed_pair_elemINS_12basic_stringIDiNS_11char_traitsIDiEENS_9allocatorIDiEEE5__repELi0ELb0EE5__getB8ue170006Ev, symObjAddr: 0xC98, symBinAddr: 0x10000DAE0, symSize: 0x14 }
  - { offsetInCU: 0x1B4C0, offset: 0x68550, size: 0x8, addend: 0x0, symName: __ZN11SpritesheetC2Ev, symObjAddr: 0xCAC, symBinAddr: 0x10000DAF4, symSize: 0xAC }
  - { offsetInCU: 0x1B4EB, offset: 0x6857B, size: 0x8, addend: 0x0, symName: __ZN2sf5ClockC1Ev, symObjAddr: 0xD58, symBinAddr: 0x10000DBA0, symSize: 0x2C }
  - { offsetInCU: 0x1B516, offset: 0x685A6, size: 0x8, addend: 0x0, symName: __ZN2sf5ClockC2Ev, symObjAddr: 0xDC4, symBinAddr: 0x10000DC0C, symSize: 0x3C }
  - { offsetInCU: 0x1B541, offset: 0x685D1, size: 0x8, addend: 0x0, symName: __ZNSt3__16chrono10time_pointINS0_12steady_clockENS0_8durationIxNS_5ratioILl1ELl1000000000EEEEEEC1B8ue170006Ev, symObjAddr: 0xE00, symBinAddr: 0x10000DC48, symSize: 0x2C }
  - { offsetInCU: 0x1B56A, offset: 0x685FA, size: 0x8, addend: 0x0, symName: __ZNSt3__16chrono10time_pointINS0_12steady_clockENS0_8durationIxNS_5ratioILl1ELl1000000000EEEEEEC2B8ue170006Ev, symObjAddr: 0xE2C, symBinAddr: 0x10000DC74, symSize: 0x34 }
  - { offsetInCU: 0x1B593, offset: 0x68623, size: 0x8, addend: 0x0, symName: __ZNSt3__16chrono8durationIxNS_5ratioILl1ELl1000000000EEEE4zeroB8ue170006Ev, symObjAddr: 0xE60, symBinAddr: 0x10000DCA8, symSize: 0x3C }
  - { offsetInCU: 0x1B5A7, offset: 0x68637, size: 0x8, addend: 0x0, symName: __ZNSt3__16chrono15duration_valuesIxE4zeroB8ue170006Ev, symObjAddr: 0xE9C, symBinAddr: 0x10000DCE4, symSize: 0x8 }
  - { offsetInCU: 0x1B5CA, offset: 0x6865A, size: 0x8, addend: 0x0, symName: __ZNSt3__16chrono8durationIxNS_5ratioILl1ELl1000000000EEEEC1B8ue170006IxEERKT_PNS_9enable_ifIXaasr14is_convertibleIS8_xEE5valueooL_ZNS_17integral_constantIbLb0EE5valueEEntsr23treat_as_floating_pointIS6_EE5valueEvE4typeE, symObjAddr: 0xEA4, symBinAddr: 0x10000DCEC, symSize: 0x3C }
  - { offsetInCU: 0x1B615, offset: 0x686A5, size: 0x8, addend: 0x0, symName: __ZNSt3__16chrono8durationIxNS_5ratioILl1ELl1000000000EEEEC2B8ue170006IxEERKT_PNS_9enable_ifIXaasr14is_convertibleIS8_xEE5valueooL_ZNS_17integral_constantIbLb0EE5valueEEntsr23treat_as_floating_pointIS6_EE5valueEvE4typeE, symObjAddr: 0xEE0, symBinAddr: 0x10000DD28, symSize: 0x28 }
  - { offsetInCU: 0x1B660, offset: 0x686F0, size: 0x8, addend: 0x0, symName: __ZNSt3__16chrono8durationIxNS_5ratioILl1ELl1000EEEEC1B8ue170006IiEERKT_PNS_9enable_ifIXaasr14is_convertibleIS8_xEE5valueooL_ZNS_17integral_constantIbLb0EE5valueEEntsr23treat_as_floating_pointIS6_EE5valueEvE4typeE, symObjAddr: 0xF08, symBinAddr: 0x10000DD50, symSize: 0x3C }
  - { offsetInCU: 0x1B6AB, offset: 0x6873B, size: 0x8, addend: 0x0, symName: __ZN2sf4TimeC1IxNSt3__15ratioILl1ELl1000EEEEERKNS2_6chrono8durationIT_T0_EE, symObjAddr: 0xF44, symBinAddr: 0x10000DD8C, symSize: 0x34 }
  - { offsetInCU: 0x1B6F4, offset: 0x68784, size: 0x8, addend: 0x0, symName: __ZNSt3__16chrono8durationIxNS_5ratioILl1ELl1000EEEEC2B8ue170006IiEERKT_PNS_9enable_ifIXaasr14is_convertibleIS8_xEE5valueooL_ZNS_17integral_constantIbLb0EE5valueEEntsr23treat_as_floating_pointIS6_EE5valueEvE4typeE, symObjAddr: 0xF78, symBinAddr: 0x10000DDC0, symSize: 0x28 }
  - { offsetInCU: 0x1B73F, offset: 0x687CF, size: 0x8, addend: 0x0, symName: __ZN2sf4TimeC2IxNSt3__15ratioILl1ELl1000EEEEERKNS2_6chrono8durationIT_T0_EE, symObjAddr: 0xFA0, symBinAddr: 0x10000DDE8, symSize: 0x38 }
  - { offsetInCU: 0x1B788, offset: 0x68818, size: 0x8, addend: 0x0, symName: __ZNSt3__16chrono8durationIxNS_5ratioILl1ELl1000000EEEEC1B8ue170006IxNS2_ILl1ELl1000EEEEERKNS1_IT_T0_EEPNS_9enable_ifIXaasr13__no_overflowIS8_S3_EE5valueooL_ZNS_17integral_constantIbLb0EE5valueEEaaeqsr13__no_overflowIS8_S3_E4typeE3denLi1Entsr23treat_as_floating_pointIS7_EE5valueEvE4typeE, symObjAddr: 0xFD8, symBinAddr: 0x10000DE20, symSize: 0x3C }
  - { offsetInCU: 0x1B7DD, offset: 0x6886D, size: 0x8, addend: 0x0, symName: __ZNSt3__16chrono8durationIxNS_5ratioILl1ELl1000000EEEEC2B8ue170006IxNS2_ILl1ELl1000EEEEERKNS1_IT_T0_EEPNS_9enable_ifIXaasr13__no_overflowIS8_S3_EE5valueooL_ZNS_17integral_constantIbLb0EE5valueEEaaeqsr13__no_overflowIS8_S3_E4typeE3denLi1Entsr23treat_as_floating_pointIS7_EE5valueEvE4typeE, symObjAddr: 0x1014, symBinAddr: 0x10000DE5C, symSize: 0x50 }
  - { offsetInCU: 0x1B832, offset: 0x688C2, size: 0x8, addend: 0x0, symName: __ZNKSt3__16chrono8durationIxNS_5ratioILl1ELl1000EEEE5countB8ue170006Ev, symObjAddr: 0x10F4, symBinAddr: 0x10000DF24, symSize: 0x18 }
  - { offsetInCU: 0x1B857, offset: 0x688E7, size: 0x8, addend: 0x0, symName: __ZNSt3__16chrono8durationIxNS_5ratioILl1ELl1000000EEEEC1B8ue170006IxEERKT_PNS_9enable_ifIXaasr14is_convertibleIS8_xEE5valueooL_ZNS_17integral_constantIbLb0EE5valueEEntsr23treat_as_floating_pointIS6_EE5valueEvE4typeE, symObjAddr: 0x110C, symBinAddr: 0x10000DF3C, symSize: 0x3C }
  - { offsetInCU: 0x1B8A2, offset: 0x68932, size: 0x8, addend: 0x0, symName: __ZNSt3__16chrono8durationIxNS_5ratioILl1ELl1000000EEEEC2B8ue170006IxEERKT_PNS_9enable_ifIXaasr14is_convertibleIS8_xEE5valueooL_ZNS_17integral_constantIbLb0EE5valueEEntsr23treat_as_floating_pointIS6_EE5valueEvE4typeE, symObjAddr: 0x1148, symBinAddr: 0x10000DF78, symSize: 0x28 }
  - { offsetInCU: 0x1B8ED, offset: 0x6897D, size: 0x8, addend: 0x0, symName: __ZN2sf4FontC2Ev, symObjAddr: 0x1170, symBinAddr: 0x10000DFA0, symSize: 0x64 }
  - { offsetInCU: 0x1B916, offset: 0x689A6, size: 0x8, addend: 0x0, symName: __ZNSt3__110shared_ptrIN2sf4Font11FontHandlesEEC1B8ue170006Ev, symObjAddr: 0x11D4, symBinAddr: 0x10000E004, symSize: 0x2C }
  - { offsetInCU: 0x1B944, offset: 0x689D4, size: 0x8, addend: 0x0, symName: __ZN2sf4Font4InfoC1Ev, symObjAddr: 0x1200, symBinAddr: 0x10000E030, symSize: 0x2C }
  - { offsetInCU: 0x1B96F, offset: 0x689FF, size: 0x8, addend: 0x0, symName: __ZNSt3__113unordered_mapIjN2sf4Font4PageENS_4hashIjEENS_8equal_toIjEENS_9allocatorINS_4pairIKjS3_EEEEEC1B8ue170006Ev, symObjAddr: 0x122C, symBinAddr: 0x10000E05C, symSize: 0x2C }
  - { offsetInCU: 0x1B998, offset: 0x68A28, size: 0x8, addend: 0x0, symName: __ZNSt3__16vectorIhNS_9allocatorIhEEEC1B8ue170006Ev, symObjAddr: 0x1258, symBinAddr: 0x10000E088, symSize: 0x2C }
  - { offsetInCU: 0x1B9C1, offset: 0x68A51, size: 0x8, addend: 0x0, symName: __ZNSt3__110shared_ptrIN2sf11InputStreamEEC1B8ue170006Ev, symObjAddr: 0x1284, symBinAddr: 0x10000E0B4, symSize: 0x2C }
  - { offsetInCU: 0x1B9EA, offset: 0x68A7A, size: 0x8, addend: 0x0, symName: __ZNSt3__110shared_ptrIN2sf4Font11FontHandlesEEC2B8ue170006Ev, symObjAddr: 0x12B0, symBinAddr: 0x10000E0E0, symSize: 0x1C }
  - { offsetInCU: 0x1BA13, offset: 0x68AA3, size: 0x8, addend: 0x0, symName: __ZN2sf4Font4InfoC2Ev, symObjAddr: 0x12CC, symBinAddr: 0x10000E0FC, symSize: 0x2C }
  - { offsetInCU: 0x1BA3E, offset: 0x68ACE, size: 0x8, addend: 0x0, symName: __ZNSt3__112basic_stringIcNS_11char_traitsIcEENS_9allocatorIcEEEC1B8ue170006Ev, symObjAddr: 0x12F8, symBinAddr: 0x10000E128, symSize: 0x2C }
  - { offsetInCU: 0x1BA67, offset: 0x68AF7, size: 0x8, addend: 0x0, symName: __ZNSt3__112basic_stringIcNS_11char_traitsIcEENS_9allocatorIcEEEC2B8ue170006Ev, symObjAddr: 0x1324, symBinAddr: 0x10000E154, symSize: 0x48 }
  - { offsetInCU: 0x1BA95, offset: 0x68B25, size: 0x8, addend: 0x0, symName: __ZNSt3__112basic_stringIcNS_11char_traitsIcEENS_9allocatorIcEEE14__default_initB8ue170006Ev, symObjAddr: 0x13A8, symBinAddr: 0x10000E19C, symSize: 0x40 }
  - { offsetInCU: 0x1BABA, offset: 0x68B4A, size: 0x8, addend: 0x0, symName: __ZNSt3__113unordered_mapIjN2sf4Font4PageENS_4hashIjEENS_8equal_toIjEENS_9allocatorINS_4pairIKjS3_EEEEEC2B8ue170006Ev, symObjAddr: 0x14DC, symBinAddr: 0x10000E1DC, symSize: 0x2C }
  - { offsetInCU: 0x1BAE3, offset: 0x68B73, size: 0x8, addend: 0x0, symName: __ZNSt3__112__hash_tableINS_17__hash_value_typeIjN2sf4Font4PageEEENS_22__unordered_map_hasherIjS5_NS_4hashIjEENS_8equal_toIjEELb1EEENS_21__unordered_map_equalIjS5_SA_S8_Lb1EEENS_9allocatorIS5_EEEC1Ev, symObjAddr: 0x1508, symBinAddr: 0x10000E208, symSize: 0x2C }
  - { offsetInCU: 0x1BB0E, offset: 0x68B9E, size: 0x8, addend: 0x0, symName: __ZNSt3__112__hash_tableINS_17__hash_value_typeIjN2sf4Font4PageEEENS_22__unordered_map_hasherIjS5_NS_4hashIjEENS_8equal_toIjEELb1EEENS_21__unordered_map_equalIjS5_SA_S8_Lb1EEENS_9allocatorIS5_EEEC2Ev, symObjAddr: 0x1534, symBinAddr: 0x10000E234, symSize: 0x7C }
  - { offsetInCU: 0x1BB39, offset: 0x68BC9, size: 0x8, addend: 0x0, symName: __ZNSt3__110unique_ptrIA_PNS_16__hash_node_baseIPNS_11__hash_nodeINS_17__hash_value_typeIjN2sf4Font4PageEEEPvEEEENS_25__bucket_list_deallocatorINS_9allocatorISC_EEEEEC1B8ue170006ILb1EvEEv, symObjAddr: 0x15B0, symBinAddr: 0x10000E2B0, symSize: 0x2C }
  - { offsetInCU: 0x1BB6D, offset: 0x68BFD, size: 0x8, addend: 0x0, symName: __ZNSt3__117__compressed_pairINS_16__hash_node_baseIPNS_11__hash_nodeINS_17__hash_value_typeIjN2sf4Font4PageEEEPvEEEENS_9allocatorIS9_EEEC1B8ue170006ILb1EvEEv, symObjAddr: 0x15DC, symBinAddr: 0x10000E2DC, symSize: 0x2C }
  - { offsetInCU: 0x1BBA6, offset: 0x68C36, size: 0x8, addend: 0x0, symName: __ZNSt3__117__compressed_pairImNS_22__unordered_map_hasherIjNS_17__hash_value_typeIjN2sf4Font4PageEEENS_4hashIjEENS_8equal_toIjEELb1EEEEC1B8ue170006IiNS_18__default_init_tagEEEOT_OT0_, symObjAddr: 0x1608, symBinAddr: 0x10000E308, symSize: 0x3C }
  - { offsetInCU: 0x1BC02, offset: 0x68C92, size: 0x8, addend: 0x0, symName: __ZNSt3__117__compressed_pairIfNS_21__unordered_map_equalIjNS_17__hash_value_typeIjN2sf4Font4PageEEENS_8equal_toIjEENS_4hashIjEELb1EEEEC1B8ue170006IfNS_18__default_init_tagEEEOT_OT0_, symObjAddr: 0x1644, symBinAddr: 0x10000E344, symSize: 0x3C }
  - { offsetInCU: 0x1BC59, offset: 0x68CE9, size: 0x8, addend: 0x0, symName: __ZNSt3__110unique_ptrIA_PNS_16__hash_node_baseIPNS_11__hash_nodeINS_17__hash_value_typeIjN2sf4Font4PageEEEPvEEEENS_25__bucket_list_deallocatorINS_9allocatorISC_EEEEEC2B8ue170006ILb1EvEEv, symObjAddr: 0x1680, symBinAddr: 0x10000E380, symSize: 0x3C }
  - { offsetInCU: 0x1BC92, offset: 0x68D22, size: 0x8, addend: 0x0, symName: __ZNSt3__117__compressed_pairIPPNS_16__hash_node_baseIPNS_11__hash_nodeINS_17__hash_value_typeIjN2sf4Font4PageEEEPvEEEENS_25__bucket_list_deallocatorINS_9allocatorISC_EEEEEC1B8ue170006INS_16__value_init_tagESK_EEOT_OT0_, symObjAddr: 0x16BC, symBinAddr: 0x10000E3BC, symSize: 0x3C }
  - { offsetInCU: 0x1BCE9, offset: 0x68D79, size: 0x8, addend: 0x0, symName: __ZNSt3__117__compressed_pairIPPNS_16__hash_node_baseIPNS_11__hash_nodeINS_17__hash_value_typeIjN2sf4Font4PageEEEPvEEEENS_25__bucket_list_deallocatorINS_9allocatorISC_EEEEEC2B8ue170006INS_16__value_init_tagESK_EEOT_OT0_, symObjAddr: 0x16F8, symBinAddr: 0x10000E3F8, symSize: 0x40 }
  - { offsetInCU: 0x1BD40, offset: 0x68DD0, size: 0x8, addend: 0x0, symName: __ZNSt3__122__compressed_pair_elemIPPNS_16__hash_node_baseIPNS_11__hash_nodeINS_17__hash_value_typeIjN2sf4Font4PageEEEPvEEEELi0ELb0EEC2B8ue170006ENS_16__value_init_tagE, symObjAddr: 0x1738, symBinAddr: 0x10000E438, symSize: 0x18 }
  - { offsetInCU: 0x1BD73, offset: 0x68E03, size: 0x8, addend: 0x0, symName: __ZNSt3__122__compressed_pair_elemINS_25__bucket_list_deallocatorINS_9allocatorIPNS_16__hash_node_baseIPNS_11__hash_nodeINS_17__hash_value_typeIjN2sf4Font4PageEEEPvEEEEEEEELi1ELb0EEC2B8ue170006ENS_16__value_init_tagE, symObjAddr: 0x1750, symBinAddr: 0x10000E450, symSize: 0x2C }
  - { offsetInCU: 0x1BDA6, offset: 0x68E36, size: 0x8, addend: 0x0, symName: __ZNSt3__125__bucket_list_deallocatorINS_9allocatorIPNS_16__hash_node_baseIPNS_11__hash_nodeINS_17__hash_value_typeIjN2sf4Font4PageEEEPvEEEEEEEC1B8ue170006Ev, symObjAddr: 0x177C, symBinAddr: 0x10000E47C, symSize: 0x2C }
  - { offsetInCU: 0x1BDCF, offset: 0x68E5F, size: 0x8, addend: 0x0, symName: __ZNSt3__125__bucket_list_deallocatorINS_9allocatorIPNS_16__hash_node_baseIPNS_11__hash_nodeINS_17__hash_value_typeIjN2sf4Font4PageEEEPvEEEEEEEC2B8ue170006Ev, symObjAddr: 0x17A8, symBinAddr: 0x10000E4A8, symSize: 0x40 }
  - { offsetInCU: 0x1BDF8, offset: 0x68E88, size: 0x8, addend: 0x0, symName: __ZNSt3__117__compressed_pairImNS_9allocatorIPNS_16__hash_node_baseIPNS_11__hash_nodeINS_17__hash_value_typeIjN2sf4Font4PageEEEPvEEEEEEEC1B8ue170006IiNS_18__default_init_tagEEEOT_OT0_, symObjAddr: 0x17E8, symBinAddr: 0x10000E4E8, symSize: 0x3C }
  - { offsetInCU: 0x1BE4F, offset: 0x68EDF, size: 0x8, addend: 0x0, symName: __ZNSt3__117__compressed_pairImNS_9allocatorIPNS_16__hash_node_baseIPNS_11__hash_nodeINS_17__hash_value_typeIjN2sf4Font4PageEEEPvEEEEEEEC2B8ue170006IiNS_18__default_init_tagEEEOT_OT0_, symObjAddr: 0x1824, symBinAddr: 0x10000E524, symSize: 0x40 }
  - { offsetInCU: 0x1BEA6, offset: 0x68F36, size: 0x8, addend: 0x0, symName: __ZNSt3__122__compressed_pair_elemImLi0ELb0EEC2B8ue170006IivEEOT_, symObjAddr: 0x1864, symBinAddr: 0x10000E564, symSize: 0x24 }
  - { offsetInCU: 0x1BEE7, offset: 0x68F77, size: 0x8, addend: 0x0, symName: __ZNSt3__122__compressed_pair_elemINS_9allocatorIPNS_16__hash_node_baseIPNS_11__hash_nodeINS_17__hash_value_typeIjN2sf4Font4PageEEEPvEEEEEELi1ELb1EEC2B8ue170006ENS_18__default_init_tagE, symObjAddr: 0x1888, symBinAddr: 0x10000E588, symSize: 0x2C }
  - { offsetInCU: 0x1BF1A, offset: 0x68FAA, size: 0x8, addend: 0x0, symName: __ZNSt3__19allocatorIPNS_16__hash_node_baseIPNS_11__hash_nodeINS_17__hash_value_typeIjN2sf4Font4PageEEEPvEEEEEC2B8ue170006Ev, symObjAddr: 0x18B4, symBinAddr: 0x10000E5B4, symSize: 0x2C }
  - { offsetInCU: 0x1BF43, offset: 0x68FD3, size: 0x8, addend: 0x0, symName: __ZNSt3__116__non_trivial_ifILb1ENS_9allocatorIPNS_16__hash_node_baseIPNS_11__hash_nodeINS_17__hash_value_typeIjN2sf4Font4PageEEEPvEEEEEEEC2B8ue170006Ev, symObjAddr: 0x18E0, symBinAddr: 0x10000E5E0, symSize: 0x14 }
  - { offsetInCU: 0x1BF6C, offset: 0x68FFC, size: 0x8, addend: 0x0, symName: __ZNSt3__117__compressed_pairINS_16__hash_node_baseIPNS_11__hash_nodeINS_17__hash_value_typeIjN2sf4Font4PageEEEPvEEEENS_9allocatorIS9_EEEC2B8ue170006ILb1EvEEv, symObjAddr: 0x18F4, symBinAddr: 0x10000E5F4, symSize: 0x34 }
  - { offsetInCU: 0x1BFA0, offset: 0x69030, size: 0x8, addend: 0x0, symName: __ZNSt3__122__compressed_pair_elemINS_16__hash_node_baseIPNS_11__hash_nodeINS_17__hash_value_typeIjN2sf4Font4PageEEEPvEEEELi0ELb0EEC2B8ue170006ENS_16__value_init_tagE, symObjAddr: 0x1928, symBinAddr: 0x10000E628, symSize: 0x2C }
  - { offsetInCU: 0x1BFD3, offset: 0x69063, size: 0x8, addend: 0x0, symName: __ZNSt3__122__compressed_pair_elemINS_9allocatorINS_11__hash_nodeINS_17__hash_value_typeIjN2sf4Font4PageEEEPvEEEELi1ELb1EEC2B8ue170006ENS_16__value_init_tagE, symObjAddr: 0x1954, symBinAddr: 0x10000E654, symSize: 0x2C }
  - { offsetInCU: 0x1C006, offset: 0x69096, size: 0x8, addend: 0x0, symName: __ZNSt3__116__hash_node_baseIPNS_11__hash_nodeINS_17__hash_value_typeIjN2sf4Font4PageEEEPvEEEC1B8ue170006Ev, symObjAddr: 0x1980, symBinAddr: 0x10000E680, symSize: 0x2C }
  - { offsetInCU: 0x1C02F, offset: 0x690BF, size: 0x8, addend: 0x0, symName: __ZNSt3__116__hash_node_baseIPNS_11__hash_nodeINS_17__hash_value_typeIjN2sf4Font4PageEEEPvEEEC2B8ue170006Ev, symObjAddr: 0x19AC, symBinAddr: 0x10000E6AC, symSize: 0x18 }
  - { offsetInCU: 0x1C058, offset: 0x690E8, size: 0x8, addend: 0x0, symName: __ZNSt3__19allocatorINS_11__hash_nodeINS_17__hash_value_typeIjN2sf4Font4PageEEEPvEEEC2B8ue170006Ev, symObjAddr: 0x19C4, symBinAddr: 0x10000E6C4, symSize: 0x2C }
  - { offsetInCU: 0x1C081, offset: 0x69111, size: 0x8, addend: 0x0, symName: __ZNSt3__116__non_trivial_ifILb1ENS_9allocatorINS_11__hash_nodeINS_17__hash_value_typeIjN2sf4Font4PageEEEPvEEEEEC2B8ue170006Ev, symObjAddr: 0x19F0, symBinAddr: 0x10000E6F0, symSize: 0x14 }
  - { offsetInCU: 0x1C0AA, offset: 0x6913A, size: 0x8, addend: 0x0, symName: __ZNSt3__117__compressed_pairImNS_22__unordered_map_hasherIjNS_17__hash_value_typeIjN2sf4Font4PageEEENS_4hashIjEENS_8equal_toIjEELb1EEEEC2B8ue170006IiNS_18__default_init_tagEEEOT_OT0_, symObjAddr: 0x1A04, symBinAddr: 0x10000E704, symSize: 0x40 }
  - { offsetInCU: 0x1C101, offset: 0x69191, size: 0x8, addend: 0x0, symName: __ZNSt3__122__compressed_pair_elemINS_22__unordered_map_hasherIjNS_17__hash_value_typeIjN2sf4Font4PageEEENS_4hashIjEENS_8equal_toIjEELb1EEELi1ELb1EEC2B8ue170006ENS_18__default_init_tagE, symObjAddr: 0x1A44, symBinAddr: 0x10000E744, symSize: 0x2C }
  - { offsetInCU: 0x1C134, offset: 0x691C4, size: 0x8, addend: 0x0, symName: __ZNSt3__122__unordered_map_hasherIjNS_17__hash_value_typeIjN2sf4Font4PageEEENS_4hashIjEENS_8equal_toIjEELb1EEC2B8ue170006Ev, symObjAddr: 0x1A70, symBinAddr: 0x10000E770, symSize: 0x14 }
  - { offsetInCU: 0x1C15D, offset: 0x691ED, size: 0x8, addend: 0x0, symName: __ZNSt3__117__compressed_pairIfNS_21__unordered_map_equalIjNS_17__hash_value_typeIjN2sf4Font4PageEEENS_8equal_toIjEENS_4hashIjEELb1EEEEC2B8ue170006IfNS_18__default_init_tagEEEOT_OT0_, symObjAddr: 0x1A84, symBinAddr: 0x10000E784, symSize: 0x40 }
  - { offsetInCU: 0x1C1B4, offset: 0x69244, size: 0x8, addend: 0x0, symName: __ZNSt3__122__compressed_pair_elemIfLi0ELb0EEC2B8ue170006IfvEEOT_, symObjAddr: 0x1AC4, symBinAddr: 0x10000E7C4, symSize: 0x24 }
  - { offsetInCU: 0x1C1F5, offset: 0x69285, size: 0x8, addend: 0x0, symName: __ZNSt3__122__compressed_pair_elemINS_21__unordered_map_equalIjNS_17__hash_value_typeIjN2sf4Font4PageEEENS_8equal_toIjEENS_4hashIjEELb1EEELi1ELb1EEC2B8ue170006ENS_18__default_init_tagE, symObjAddr: 0x1AE8, symBinAddr: 0x10000E7E8, symSize: 0x2C }
  - { offsetInCU: 0x1C228, offset: 0x692B8, size: 0x8, addend: 0x0, symName: __ZNSt3__121__unordered_map_equalIjNS_17__hash_value_typeIjN2sf4Font4PageEEENS_8equal_toIjEENS_4hashIjEELb1EEC2B8ue170006Ev, symObjAddr: 0x1B14, symBinAddr: 0x10000E814, symSize: 0x14 }
  - { offsetInCU: 0x1C251, offset: 0x692E1, size: 0x8, addend: 0x0, symName: __ZNSt3__16vectorIhNS_9allocatorIhEEEC2B8ue170006Ev, symObjAddr: 0x1B28, symBinAddr: 0x10000E828, symSize: 0x4C }
  - { offsetInCU: 0x1C27F, offset: 0x6930F, size: 0x8, addend: 0x0, symName: __ZNSt3__117__compressed_pairIPhNS_9allocatorIhEEEC1B8ue170006IDnNS_18__default_init_tagEEEOT_OT0_, symObjAddr: 0x1B74, symBinAddr: 0x10000E874, symSize: 0x3C }
  - { offsetInCU: 0x1C2D6, offset: 0x69366, size: 0x8, addend: 0x0, symName: __ZNSt3__117__compressed_pairIPhNS_9allocatorIhEEEC2B8ue170006IDnNS_18__default_init_tagEEEOT_OT0_, symObjAddr: 0x1BB0, symBinAddr: 0x10000E8B0, symSize: 0x40 }
  - { offsetInCU: 0x1C32D, offset: 0x693BD, size: 0x8, addend: 0x0, symName: __ZNSt3__122__compressed_pair_elemIPhLi0ELb0EEC2B8ue170006IDnvEEOT_, symObjAddr: 0x1BF0, symBinAddr: 0x10000E8F0, symSize: 0x1C }
  - { offsetInCU: 0x1C36E, offset: 0x693FE, size: 0x8, addend: 0x0, symName: __ZNSt3__122__compressed_pair_elemINS_9allocatorIhEELi1ELb1EEC2B8ue170006ENS_18__default_init_tagE, symObjAddr: 0x1C0C, symBinAddr: 0x10000E90C, symSize: 0x2C }
  - { offsetInCU: 0x1C3A1, offset: 0x69431, size: 0x8, addend: 0x0, symName: __ZNSt3__19allocatorIhEC2B8ue170006Ev, symObjAddr: 0x1C38, symBinAddr: 0x10000E938, symSize: 0x2C }
  - { offsetInCU: 0x1C3CA, offset: 0x6945A, size: 0x8, addend: 0x0, symName: __ZNSt3__116__non_trivial_ifILb1ENS_9allocatorIhEEEC2B8ue170006Ev, symObjAddr: 0x1C64, symBinAddr: 0x10000E964, symSize: 0x14 }
  - { offsetInCU: 0x1C3F3, offset: 0x69483, size: 0x8, addend: 0x0, symName: __ZNSt3__110shared_ptrIN2sf11InputStreamEEC2B8ue170006Ev, symObjAddr: 0x1C78, symBinAddr: 0x10000E978, symSize: 0x1C }
  - { offsetInCU: 0x1C41C, offset: 0x694AC, size: 0x8, addend: 0x0, symName: __ZNSt3__14__fs10filesystem4pathD2B8ue170006Ev, symObjAddr: 0x1C94, symBinAddr: 0x10000E994, symSize: 0x2C }
  - { offsetInCU: 0x1C445, offset: 0x694D5, size: 0x8, addend: 0x0, symName: __ZN4GameC2Ev, symObjAddr: 0x1CC0, symBinAddr: 0x10000E9C0, symSize: 0x64 }
  - { offsetInCU: 0x1C470, offset: 0x69500, size: 0x8, addend: 0x0, symName: __ZNSt3__16vectorI4CardNS_9allocatorIS1_EEEC1B8ue170006Ev, symObjAddr: 0x1D24, symBinAddr: 0x10000EA24, symSize: 0x2C }
  - { offsetInCU: 0x1C499, offset: 0x69529, size: 0x8, addend: 0x0, symName: __ZNSt3__16vectorI4MoveNS_9allocatorIS1_EEEC1B8ue170006Ev, symObjAddr: 0x1D50, symBinAddr: 0x10000EA50, symSize: 0x2C }
  - { offsetInCU: 0x1C4C2, offset: 0x69552, size: 0x8, addend: 0x0, symName: __ZNSt3__15arrayINS_6vectorI4CardNS_9allocatorIS2_EEEELm7EEC1Ev, symObjAddr: 0x1D7C, symBinAddr: 0x10000EA7C, symSize: 0x2C }
  - { offsetInCU: 0x1C4ED, offset: 0x6957D, size: 0x8, addend: 0x0, symName: __ZNSt3__15arrayINS_6vectorI4CardNS_9allocatorIS2_EEEELm4EEC1Ev, symObjAddr: 0x1DA8, symBinAddr: 0x10000EAA8, symSize: 0x2C }
  - { offsetInCU: 0x1C518, offset: 0x695A8, size: 0x8, addend: 0x0, symName: __ZNSt3__16vectorI4CardNS_9allocatorIS1_EEEC2B8ue170006Ev, symObjAddr: 0x1DD4, symBinAddr: 0x10000EAD4, symSize: 0x4C }
  - { offsetInCU: 0x1C541, offset: 0x695D1, size: 0x8, addend: 0x0, symName: __ZNSt3__117__compressed_pairIP4CardNS_9allocatorIS1_EEEC1B8ue170006IDnNS_18__default_init_tagEEEOT_OT0_, symObjAddr: 0x1E20, symBinAddr: 0x10000EB20, symSize: 0x3C }
  - { offsetInCU: 0x1C598, offset: 0x69628, size: 0x8, addend: 0x0, symName: __ZNSt3__117__compressed_pairIP4CardNS_9allocatorIS1_EEEC2B8ue170006IDnNS_18__default_init_tagEEEOT_OT0_, symObjAddr: 0x1E5C, symBinAddr: 0x10000EB5C, symSize: 0x40 }
  - { offsetInCU: 0x1C5EF, offset: 0x6967F, size: 0x8, addend: 0x0, symName: __ZNSt3__122__compressed_pair_elemINS_9allocatorI4CardEELi1ELb1EEC2B8ue170006ENS_18__default_init_tagE, symObjAddr: 0x1EB8, symBinAddr: 0x10000EB9C, symSize: 0x2C }
  - { offsetInCU: 0x1C622, offset: 0x696B2, size: 0x8, addend: 0x0, symName: __ZNSt3__19allocatorI4CardEC2B8ue170006Ev, symObjAddr: 0x1EE4, symBinAddr: 0x10000EBC8, symSize: 0x2C }
  - { offsetInCU: 0x1C64B, offset: 0x696DB, size: 0x8, addend: 0x0, symName: __ZNSt3__116__non_trivial_ifILb1ENS_9allocatorI4CardEEEC2B8ue170006Ev, symObjAddr: 0x1F10, symBinAddr: 0x10000EBF4, symSize: 0x14 }
  - { offsetInCU: 0x1C674, offset: 0x69704, size: 0x8, addend: 0x0, symName: __ZNSt3__16vectorI4MoveNS_9allocatorIS1_EEEC2B8ue170006Ev, symObjAddr: 0x1F24, symBinAddr: 0x10000EC08, symSize: 0x4C }
  - { offsetInCU: 0x1C69D, offset: 0x6972D, size: 0x8, addend: 0x0, symName: __ZNSt3__117__compressed_pairIP4MoveNS_9allocatorIS1_EEEC1B8ue170006IDnNS_18__default_init_tagEEEOT_OT0_, symObjAddr: 0x1F70, symBinAddr: 0x10000EC54, symSize: 0x3C }
  - { offsetInCU: 0x1C6F4, offset: 0x69784, size: 0x8, addend: 0x0, symName: __ZNSt3__117__compressed_pairIP4MoveNS_9allocatorIS1_EEEC2B8ue170006IDnNS_18__default_init_tagEEEOT_OT0_, symObjAddr: 0x1FAC, symBinAddr: 0x10000EC90, symSize: 0x40 }
  - { offsetInCU: 0x1C74B, offset: 0x697DB, size: 0x8, addend: 0x0, symName: __ZNSt3__122__compressed_pair_elemINS_9allocatorI4MoveEELi1ELb1EEC2B8ue170006ENS_18__default_init_tagE, symObjAddr: 0x2008, symBinAddr: 0x10000ECD0, symSize: 0x2C }
  - { offsetInCU: 0x1C77E, offset: 0x6980E, size: 0x8, addend: 0x0, symName: __ZNSt3__19allocatorI4MoveEC2B8ue170006Ev, symObjAddr: 0x2034, symBinAddr: 0x10000ECFC, symSize: 0x2C }
  - { offsetInCU: 0x1C7A7, offset: 0x69837, size: 0x8, addend: 0x0, symName: __ZNSt3__116__non_trivial_ifILb1ENS_9allocatorI4MoveEEEC2B8ue170006Ev, symObjAddr: 0x2060, symBinAddr: 0x10000ED28, symSize: 0x14 }
  - { offsetInCU: 0x1C7D0, offset: 0x69860, size: 0x8, addend: 0x0, symName: __ZNSt3__15arrayINS_6vectorI4CardNS_9allocatorIS2_EEEELm7EEC2Ev, symObjAddr: 0x2074, symBinAddr: 0x10000ED3C, symSize: 0x68 }
  - { offsetInCU: 0x1C7FB, offset: 0x6988B, size: 0x8, addend: 0x0, symName: __ZNSt3__15arrayINS_6vectorI4CardNS_9allocatorIS2_EEEELm4EEC2Ev, symObjAddr: 0x20DC, symBinAddr: 0x10000EDA4, symSize: 0x68 }
  - { offsetInCU: 0x1C826, offset: 0x698B6, size: 0x8, addend: 0x0, symName: __ZN17SolitaireGraphicsC2ER11SpritesheetRN2sf4FontER4Game, symObjAddr: 0x2144, symBinAddr: 0x10000EE0C, symSize: 0xE4 }
  - { offsetInCU: 0x1C879, offset: 0x69909, size: 0x8, addend: 0x0, symName: __ZN5InputC2ER4GameR17SolitaireGraphicsR11Spritesheet, symObjAddr: 0x2274, symBinAddr: 0x10000EEF0, symSize: 0x68 }
  - { offsetInCU: 0x1C8CC, offset: 0x6995C, size: 0x8, addend: 0x0, symName: __ZNKSt3__123__optional_storage_baseIN2sf5EventELb0EE9has_valueB8ue170006Ev, symObjAddr: 0x22DC, symBinAddr: 0x10000EF58, symSize: 0x1C }
  - { offsetInCU: 0x1C8F1, offset: 0x69981, size: 0x8, addend: 0x0, symName: __ZNKRSt3__123__optional_storage_baseIN2sf5EventELb0EE5__getB8ue170006Ev, symObjAddr: 0x22F8, symBinAddr: 0x10000EF74, symSize: 0x14 }
  - { offsetInCU: 0x1C916, offset: 0x699A6, size: 0x8, addend: 0x0, symName: __ZN17SolitaireGraphicsD2Ev, symObjAddr: 0x2350, symBinAddr: 0x10000EF88, symSize: 0x30 }
  - { offsetInCU: 0x1C941, offset: 0x699D1, size: 0x8, addend: 0x0, symName: __ZN4GameD2Ev, symObjAddr: 0x2380, symBinAddr: 0x10000EFB8, symSize: 0x60 }
  - { offsetInCU: 0x1C96C, offset: 0x699FC, size: 0x8, addend: 0x0, symName: __ZNSt3__15arrayINS_6vectorI4CardNS_9allocatorIS2_EEEELm4EED1Ev, symObjAddr: 0x23E0, symBinAddr: 0x10000F018, symSize: 0x2C }
  - { offsetInCU: 0x1C997, offset: 0x69A27, size: 0x8, addend: 0x0, symName: __ZNSt3__15arrayINS_6vectorI4CardNS_9allocatorIS2_EEEELm7EED1Ev, symObjAddr: 0x240C, symBinAddr: 0x10000F044, symSize: 0x2C }
  - { offsetInCU: 0x1C9C2, offset: 0x69A52, size: 0x8, addend: 0x0, symName: __ZNSt3__16vectorI4MoveNS_9allocatorIS1_EEED1B8ue170006Ev, symObjAddr: 0x2438, symBinAddr: 0x10000F070, symSize: 0x2C }
  - { offsetInCU: 0x1C9EB, offset: 0x69A7B, size: 0x8, addend: 0x0, symName: __ZNSt3__15arrayINS_6vectorI4CardNS_9allocatorIS2_EEEELm4EED2Ev, symObjAddr: 0x2490, symBinAddr: 0x10000F09C, symSize: 0x64 }
  - { offsetInCU: 0x1CA16, offset: 0x69AA6, size: 0x8, addend: 0x0, symName: __ZNSt3__15arrayINS_6vectorI4CardNS_9allocatorIS2_EEEELm7EED2Ev, symObjAddr: 0x24F4, symBinAddr: 0x10000F100, symSize: 0x64 }
  - { offsetInCU: 0x1CA41, offset: 0x69AD1, size: 0x8, addend: 0x0, symName: __ZNSt3__16vectorI4MoveNS_9allocatorIS1_EEED2B8ue170006Ev, symObjAddr: 0x2558, symBinAddr: 0x10000F164, symSize: 0x44 }
  - { offsetInCU: 0x1CA6A, offset: 0x69AFA, size: 0x8, addend: 0x0, symName: __ZNSt3__16vectorI4MoveNS_9allocatorIS1_EEE16__destroy_vectorC1B8ue170006ERS4_, symObjAddr: 0x259C, symBinAddr: 0x10000F1A8, symSize: 0x34 }
  - { offsetInCU: 0x1CAA2, offset: 0x69B32, size: 0x8, addend: 0x0, symName: __ZNSt3__16vectorI4MoveNS_9allocatorIS1_EEE16__destroy_vectorclB8ue170006Ev, symObjAddr: 0x25D0, symBinAddr: 0x10000F1DC, symSize: 0x90 }
  - { offsetInCU: 0x1CAC7, offset: 0x69B57, size: 0x8, addend: 0x0, symName: __ZNSt3__16vectorI4MoveNS_9allocatorIS1_EEE16__destroy_vectorC2B8ue170006ERS4_, symObjAddr: 0x2660, symBinAddr: 0x10000F26C, symSize: 0x20 }
  - { offsetInCU: 0x1CAFF, offset: 0x69B8F, size: 0x8, addend: 0x0, symName: __ZN2sf4FontD2Ev, symObjAddr: 0x2F30, symBinAddr: 0x10000F28C, symSize: 0x5C }
  - { offsetInCU: 0x1CB2A, offset: 0x69BBA, size: 0x8, addend: 0x0, symName: __ZNSt3__110shared_ptrIN2sf11InputStreamEED1B8ue170006Ev, symObjAddr: 0x2F8C, symBinAddr: 0x10000F2E8, symSize: 0x2C }
  - { offsetInCU: 0x1CB53, offset: 0x69BE3, size: 0x8, addend: 0x0, symName: __ZNSt3__16vectorIhNS_9allocatorIhEEED1B8ue170006Ev, symObjAddr: 0x2FB8, symBinAddr: 0x10000F314, symSize: 0x2C }
  - { offsetInCU: 0x1CB7C, offset: 0x69C0C, size: 0x8, addend: 0x0, symName: __ZNSt3__113unordered_mapIjN2sf4Font4PageENS_4hashIjEENS_8equal_toIjEENS_9allocatorINS_4pairIKjS3_EEEEED1B8ue170006Ev, symObjAddr: 0x2FE4, symBinAddr: 0x10000F340, symSize: 0x2C }
  - { offsetInCU: 0x1CBA5, offset: 0x69C35, size: 0x8, addend: 0x0, symName: __ZN2sf4Font4InfoD1Ev, symObjAddr: 0x3010, symBinAddr: 0x10000F36C, symSize: 0x2C }
  - { offsetInCU: 0x1CBD0, offset: 0x69C60, size: 0x8, addend: 0x0, symName: __ZNSt3__110shared_ptrIN2sf4Font11FontHandlesEED1B8ue170006Ev, symObjAddr: 0x303C, symBinAddr: 0x10000F398, symSize: 0x2C }
  - { offsetInCU: 0x1CBF9, offset: 0x69C89, size: 0x8, addend: 0x0, symName: __ZNSt3__110shared_ptrIN2sf11InputStreamEED2B8ue170006Ev, symObjAddr: 0x3068, symBinAddr: 0x10000F3C4, symSize: 0x54 }
  - { offsetInCU: 0x1CC22, offset: 0x69CB2, size: 0x8, addend: 0x0, symName: __ZNSt3__119__shared_weak_count16__release_sharedB8ue170006Ev, symObjAddr: 0x30BC, symBinAddr: 0x10000F418, symSize: 0x3C }
  - { offsetInCU: 0x1CC47, offset: 0x69CD7, size: 0x8, addend: 0x0, symName: __ZNSt3__114__shared_count16__release_sharedB8ue170006Ev, symObjAddr: 0x30F8, symBinAddr: 0x10000F454, symSize: 0x7C }
  - { offsetInCU: 0x1CC6C, offset: 0x69CFC, size: 0x8, addend: 0x0, symName: __ZNSt3__16vectorIhNS_9allocatorIhEEED2B8ue170006Ev, symObjAddr: 0x31A4, symBinAddr: 0x10000F500, symSize: 0x44 }
  - { offsetInCU: 0x1CC95, offset: 0x69D25, size: 0x8, addend: 0x0, symName: __ZNSt3__16vectorIhNS_9allocatorIhEEE16__destroy_vectorC1B8ue170006ERS3_, symObjAddr: 0x31E8, symBinAddr: 0x10000F544, symSize: 0x34 }
  - { offsetInCU: 0x1CCCD, offset: 0x69D5D, size: 0x8, addend: 0x0, symName: __ZNSt3__16vectorIhNS_9allocatorIhEEE16__destroy_vectorclB8ue170006Ev, symObjAddr: 0x321C, symBinAddr: 0x10000F578, symSize: 0x90 }
  - { offsetInCU: 0x1CCF2, offset: 0x69D82, size: 0x8, addend: 0x0, symName: __ZNSt3__16vectorIhNS_9allocatorIhEEE16__destroy_vectorC2B8ue170006ERS3_, symObjAddr: 0x32AC, symBinAddr: 0x10000F608, symSize: 0x20 }
  - { offsetInCU: 0x1CD2A, offset: 0x69DBA, size: 0x8, addend: 0x0, symName: __ZNSt3__16vectorIhNS_9allocatorIhEEE7__clearB8ue170006Ev, symObjAddr: 0x32CC, symBinAddr: 0x10000F628, symSize: 0x28 }
  - { offsetInCU: 0x1CD4F, offset: 0x69DDF, size: 0x8, addend: 0x0, symName: __ZNKSt3__16vectorIhNS_9allocatorIhEEE17__annotate_deleteB8ue170006Ev, symObjAddr: 0x32F4, symBinAddr: 0x10000F650, symSize: 0xB8 }
  - { offsetInCU: 0x1CD74, offset: 0x69E04, size: 0x8, addend: 0x0, symName: __ZNSt3__116allocator_traitsINS_9allocatorIhEEE10deallocateB8ue170006ERS2_Phm, symObjAddr: 0x33AC, symBinAddr: 0x10000F708, symSize: 0x34 }
  - { offsetInCU: 0x1CDB6, offset: 0x69E46, size: 0x8, addend: 0x0, symName: __ZNSt3__16vectorIhNS_9allocatorIhEEE7__allocB8ue170006Ev, symObjAddr: 0x33E0, symBinAddr: 0x10000F73C, symSize: 0x28 }
  - { offsetInCU: 0x1CDDB, offset: 0x69E6B, size: 0x8, addend: 0x0, symName: __ZNKSt3__16vectorIhNS_9allocatorIhEEE8capacityB8ue170006Ev, symObjAddr: 0x3408, symBinAddr: 0x10000F764, symSize: 0x38 }
  - { offsetInCU: 0x1CE00, offset: 0x69E90, size: 0x8, addend: 0x0, symName: __ZNSt3__16vectorIhNS_9allocatorIhEEE22__base_destruct_at_endB8ue170006EPh, symObjAddr: 0x3440, symBinAddr: 0x10000F79C, symSize: 0x8C }
  - { offsetInCU: 0x1CE43, offset: 0x69ED3, size: 0x8, addend: 0x0, symName: __ZNSt3__116allocator_traitsINS_9allocatorIhEEE7destroyB8ue170006IhvEEvRS2_PT_, symObjAddr: 0x34CC, symBinAddr: 0x10000F828, symSize: 0x2C }
  - { offsetInCU: 0x1CE80, offset: 0x69F10, size: 0x8, addend: 0x0, symName: __ZNSt3__19allocatorIhE7destroyB8ue170006EPh, symObjAddr: 0x350C, symBinAddr: 0x10000F868, symSize: 0x14 }
  - { offsetInCU: 0x1CEB3, offset: 0x69F43, size: 0x8, addend: 0x0, symName: __ZNKSt3__16vectorIhNS_9allocatorIhEEE31__annotate_contiguous_containerB8ue170006EPKvS5_S5_S5_, symObjAddr: 0x3520, symBinAddr: 0x10000F87C, symSize: 0x20 }
  - { offsetInCU: 0x1CF04, offset: 0x69F94, size: 0x8, addend: 0x0, symName: __ZNKSt3__16vectorIhNS_9allocatorIhEEE4dataB8ue170006Ev, symObjAddr: 0x3540, symBinAddr: 0x10000F89C, symSize: 0x28 }
  - { offsetInCU: 0x1CF29, offset: 0x69FB9, size: 0x8, addend: 0x0, symName: __ZNKSt3__16vectorIhNS_9allocatorIhEEE4sizeB8ue170006Ev, symObjAddr: 0x3568, symBinAddr: 0x10000F8C4, symSize: 0x20 }
  - { offsetInCU: 0x1CF4E, offset: 0x69FDE, size: 0x8, addend: 0x0, symName: __ZNSt3__19allocatorIhE10deallocateB8ue170006EPhm, symObjAddr: 0x3588, symBinAddr: 0x10000F8E4, symSize: 0x40 }
  - { offsetInCU: 0x1CF8F, offset: 0x6A01F, size: 0x8, addend: 0x0, symName: __ZNSt3__117__compressed_pairIPhNS_9allocatorIhEEE6secondB8ue170006Ev, symObjAddr: 0x35C8, symBinAddr: 0x10000F924, symSize: 0x24 }
  - { offsetInCU: 0x1CFB4, offset: 0x6A044, size: 0x8, addend: 0x0, symName: __ZNSt3__122__compressed_pair_elemINS_9allocatorIhEELi1ELb1EE5__getB8ue170006Ev, symObjAddr: 0x35EC, symBinAddr: 0x10000F948, symSize: 0x14 }
  - { offsetInCU: 0x1CFD9, offset: 0x6A069, size: 0x8, addend: 0x0, symName: __ZNKSt3__16vectorIhNS_9allocatorIhEEE9__end_capB8ue170006Ev, symObjAddr: 0x3600, symBinAddr: 0x10000F95C, symSize: 0x28 }
  - { offsetInCU: 0x1CFFE, offset: 0x6A08E, size: 0x8, addend: 0x0, symName: __ZNKSt3__117__compressed_pairIPhNS_9allocatorIhEEE5firstB8ue170006Ev, symObjAddr: 0x3628, symBinAddr: 0x10000F984, symSize: 0x24 }
  - { offsetInCU: 0x1D023, offset: 0x6A0B3, size: 0x8, addend: 0x0, symName: __ZNKSt3__122__compressed_pair_elemIPhLi0ELb0EE5__getB8ue170006Ev, symObjAddr: 0x364C, symBinAddr: 0x10000F9A8, symSize: 0x14 }
  - { offsetInCU: 0x1D048, offset: 0x6A0D8, size: 0x8, addend: 0x0, symName: __ZNSt3__113unordered_mapIjN2sf4Font4PageENS_4hashIjEENS_8equal_toIjEENS_9allocatorINS_4pairIKjS3_EEEEED2B8ue170006Ev, symObjAddr: 0x3660, symBinAddr: 0x10000F9BC, symSize: 0x2C }
  - { offsetInCU: 0x1D071, offset: 0x6A101, size: 0x8, addend: 0x0, symName: __ZNSt3__112__hash_tableINS_17__hash_value_typeIjN2sf4Font4PageEEENS_22__unordered_map_hasherIjS5_NS_4hashIjEENS_8equal_toIjEELb1EEENS_21__unordered_map_equalIjS5_SA_S8_Lb1EEENS_9allocatorIS5_EEED1Ev, symObjAddr: 0x368C, symBinAddr: 0x10000F9E8, symSize: 0x2C }
  - { offsetInCU: 0x1D09C, offset: 0x6A12C, size: 0x8, addend: 0x0, symName: __ZNSt3__112__hash_tableINS_17__hash_value_typeIjN2sf4Font4PageEEENS_22__unordered_map_hasherIjS5_NS_4hashIjEENS_8equal_toIjEELb1EEENS_21__unordered_map_equalIjS5_SA_S8_Lb1EEENS_9allocatorIS5_EEED2Ev, symObjAddr: 0x36B8, symBinAddr: 0x10000FA14, symSize: 0x48 }
  - { offsetInCU: 0x1D0C7, offset: 0x6A157, size: 0x8, addend: 0x0, symName: __ZNSt3__112__hash_tableINS_17__hash_value_typeIjN2sf4Font4PageEEENS_22__unordered_map_hasherIjS5_NS_4hashIjEENS_8equal_toIjEELb1EEENS_21__unordered_map_equalIjS5_SA_S8_Lb1EEENS_9allocatorIS5_EEE17__deallocate_nodeEPNS_16__hash_node_baseIPNS_11__hash_nodeIS5_PvEEEE, symObjAddr: 0x3700, symBinAddr: 0x10000FA5C, symSize: 0xA8 }
  - { offsetInCU: 0x1D130, offset: 0x6A1C0, size: 0x8, addend: 0x0, symName: __ZNSt3__117__compressed_pairINS_16__hash_node_baseIPNS_11__hash_nodeINS_17__hash_value_typeIjN2sf4Font4PageEEEPvEEEENS_9allocatorIS9_EEE5firstB8ue170006Ev, symObjAddr: 0x37A8, symBinAddr: 0x10000FB04, symSize: 0x24 }
  - { offsetInCU: 0x1D155, offset: 0x6A1E5, size: 0x8, addend: 0x0, symName: __ZNSt3__110unique_ptrIA_PNS_16__hash_node_baseIPNS_11__hash_nodeINS_17__hash_value_typeIjN2sf4Font4PageEEEPvEEEENS_25__bucket_list_deallocatorINS_9allocatorISC_EEEEED1B8ue170006Ev, symObjAddr: 0x37CC, symBinAddr: 0x10000FB28, symSize: 0x2C }
  - { offsetInCU: 0x1D17E, offset: 0x6A20E, size: 0x8, addend: 0x0, symName: __ZNSt3__112__hash_tableINS_17__hash_value_typeIjN2sf4Font4PageEEENS_22__unordered_map_hasherIjS5_NS_4hashIjEENS_8equal_toIjEELb1EEENS_21__unordered_map_equalIjS5_SA_S8_Lb1EEENS_9allocatorIS5_EEE12__node_allocB8ue170006Ev, symObjAddr: 0x37F8, symBinAddr: 0x10000FB54, symSize: 0x28 }
  - { offsetInCU: 0x1D1A3, offset: 0x6A233, size: 0x8, addend: 0x0, symName: __ZNSt3__116__hash_node_baseIPNS_11__hash_nodeINS_17__hash_value_typeIjN2sf4Font4PageEEEPvEEE8__upcastB8ue170006Ev, symObjAddr: 0x3820, symBinAddr: 0x10000FB7C, symSize: 0x24 }
  - { offsetInCU: 0x1D1CD, offset: 0x6A25D, size: 0x8, addend: 0x0, symName: __ZNSt3__116allocator_traitsINS_9allocatorINS_11__hash_nodeINS_17__hash_value_typeIjN2sf4Font4PageEEEPvEEEEE7destroyB8ue170006INS_4pairIKjS6_EEvvEEvRSA_PT_, symObjAddr: 0x3844, symBinAddr: 0x10000FBA0, symSize: 0x28 }
  - { offsetInCU: 0x1D207, offset: 0x6A297, size: 0x8, addend: 0x0, symName: __ZNSt3__122__hash_key_value_typesINS_17__hash_value_typeIjN2sf4Font4PageEEEE9__get_ptrB8ue170006ERS5_, symObjAddr: 0x386C, symBinAddr: 0x10000FBC8, symSize: 0x24 }
  - { offsetInCU: 0x1D22A, offset: 0x6A2BA, size: 0x8, addend: 0x0, symName: __ZNSt3__116allocator_traitsINS_9allocatorINS_11__hash_nodeINS_17__hash_value_typeIjN2sf4Font4PageEEEPvEEEEE10deallocateB8ue170006ERSA_PS9_m, symObjAddr: 0x3890, symBinAddr: 0x10000FBEC, symSize: 0x34 }
  - { offsetInCU: 0x1D26C, offset: 0x6A2FC, size: 0x8, addend: 0x0, symName: __ZNSt3__117__compressed_pairINS_16__hash_node_baseIPNS_11__hash_nodeINS_17__hash_value_typeIjN2sf4Font4PageEEEPvEEEENS_9allocatorIS9_EEE6secondB8ue170006Ev, symObjAddr: 0x38C4, symBinAddr: 0x10000FC20, symSize: 0x24 }
  - { offsetInCU: 0x1D291, offset: 0x6A321, size: 0x8, addend: 0x0, symName: __ZNSt3__122__compressed_pair_elemINS_9allocatorINS_11__hash_nodeINS_17__hash_value_typeIjN2sf4Font4PageEEEPvEEEELi1ELb1EE5__getB8ue170006Ev, symObjAddr: 0x38E8, symBinAddr: 0x10000FC44, symSize: 0x14 }
  - { offsetInCU: 0x1D2B6, offset: 0x6A346, size: 0x8, addend: 0x0, symName: __ZNSt3__114pointer_traitsIPNS_16__hash_node_baseIPNS_11__hash_nodeINS_17__hash_value_typeIjN2sf4Font4PageEEEPvEEEEE10pointer_toB8ue170006ERSB_, symObjAddr: 0x38FC, symBinAddr: 0x10000FC58, symSize: 0x14 }
  - { offsetInCU: 0x1D2D9, offset: 0x6A369, size: 0x8, addend: 0x0, symName: __ZNSt3__14pairIKjN2sf4Font4PageEED1Ev, symObjAddr: 0x3910, symBinAddr: 0x10000FC6C, symSize: 0x2C }
  - { offsetInCU: 0x1D304, offset: 0x6A394, size: 0x8, addend: 0x0, symName: __ZNSt3__14pairIKjN2sf4Font4PageEED2Ev, symObjAddr: 0x393C, symBinAddr: 0x10000FC98, symSize: 0x30 }
  - { offsetInCU: 0x1D32F, offset: 0x6A3BF, size: 0x8, addend: 0x0, symName: __ZN2sf4Font4PageD1Ev, symObjAddr: 0x396C, symBinAddr: 0x10000FCC8, symSize: 0x2C }
  - { offsetInCU: 0x1D35B, offset: 0x6A3EB, size: 0x8, addend: 0x0, symName: __ZN2sf4Font4PageD2Ev, symObjAddr: 0x3998, symBinAddr: 0x10000FCF4, symSize: 0x44 }
  - { offsetInCU: 0x1D387, offset: 0x6A417, size: 0x8, addend: 0x0, symName: __ZNSt3__16vectorIN2sf4Font3RowENS_9allocatorIS3_EEED1B8ue170006Ev, symObjAddr: 0x39DC, symBinAddr: 0x10000FD38, symSize: 0x2C }
  - { offsetInCU: 0x1D3B0, offset: 0x6A440, size: 0x8, addend: 0x0, symName: __ZNSt3__113unordered_mapIyN2sf5GlyphENS_4hashIyEENS_8equal_toIyEENS_9allocatorINS_4pairIKyS2_EEEEED1B8ue170006Ev, symObjAddr: 0x3A08, symBinAddr: 0x10000FD64, symSize: 0x2C }
  - { offsetInCU: 0x1D3D9, offset: 0x6A469, size: 0x8, addend: 0x0, symName: __ZNSt3__16vectorIN2sf4Font3RowENS_9allocatorIS3_EEED2B8ue170006Ev, symObjAddr: 0x3A34, symBinAddr: 0x10000FD90, symSize: 0x44 }
  - { offsetInCU: 0x1D402, offset: 0x6A492, size: 0x8, addend: 0x0, symName: __ZNSt3__16vectorIN2sf4Font3RowENS_9allocatorIS3_EEE16__destroy_vectorC1B8ue170006ERS6_, symObjAddr: 0x3A78, symBinAddr: 0x10000FDD4, symSize: 0x34 }
  - { offsetInCU: 0x1D43A, offset: 0x6A4CA, size: 0x8, addend: 0x0, symName: __ZNSt3__16vectorIN2sf4Font3RowENS_9allocatorIS3_EEE16__destroy_vectorclB8ue170006Ev, symObjAddr: 0x3AAC, symBinAddr: 0x10000FE08, symSize: 0x90 }
  - { offsetInCU: 0x1D45F, offset: 0x6A4EF, size: 0x8, addend: 0x0, symName: __ZNSt3__16vectorIN2sf4Font3RowENS_9allocatorIS3_EEE16__destroy_vectorC2B8ue170006ERS6_, symObjAddr: 0x3B3C, symBinAddr: 0x10000FE98, symSize: 0x20 }
  - { offsetInCU: 0x1D497, offset: 0x6A527, size: 0x8, addend: 0x0, symName: __ZNSt3__16vectorIN2sf4Font3RowENS_9allocatorIS3_EEE7__clearB8ue170006Ev, symObjAddr: 0x3B5C, symBinAddr: 0x10000FEB8, symSize: 0x28 }
  - { offsetInCU: 0x1D4BC, offset: 0x6A54C, size: 0x8, addend: 0x0, symName: __ZNKSt3__16vectorIN2sf4Font3RowENS_9allocatorIS3_EEE17__annotate_deleteB8ue170006Ev, symObjAddr: 0x3B84, symBinAddr: 0x10000FEE0, symSize: 0xD4 }
  - { offsetInCU: 0x1D4E1, offset: 0x6A571, size: 0x8, addend: 0x0, symName: __ZNSt3__116allocator_traitsINS_9allocatorIN2sf4Font3RowEEEE10deallocateB8ue170006ERS5_PS4_m, symObjAddr: 0x3C58, symBinAddr: 0x10000FFB4, symSize: 0x34 }
  - { offsetInCU: 0x1D523, offset: 0x6A5B3, size: 0x8, addend: 0x0, symName: __ZNSt3__16vectorIN2sf4Font3RowENS_9allocatorIS3_EEE7__allocB8ue170006Ev, symObjAddr: 0x3C8C, symBinAddr: 0x10000FFE8, symSize: 0x28 }
  - { offsetInCU: 0x1D548, offset: 0x6A5D8, size: 0x8, addend: 0x0, symName: __ZNKSt3__16vectorIN2sf4Font3RowENS_9allocatorIS3_EEE8capacityB8ue170006Ev, symObjAddr: 0x3CB4, symBinAddr: 0x100010010, symSize: 0x40 }
  - { offsetInCU: 0x1D56D, offset: 0x6A5FD, size: 0x8, addend: 0x0, symName: __ZNSt3__16vectorIN2sf4Font3RowENS_9allocatorIS3_EEE22__base_destruct_at_endB8ue170006EPS3_, symObjAddr: 0x3CF4, symBinAddr: 0x100010050, symSize: 0x8C }
  - { offsetInCU: 0x1D5B0, offset: 0x6A640, size: 0x8, addend: 0x0, symName: __ZNSt3__116allocator_traitsINS_9allocatorIN2sf4Font3RowEEEE7destroyB8ue170006IS4_vEEvRS5_PT_, symObjAddr: 0x3D80, symBinAddr: 0x1000100DC, symSize: 0x2C }
  - { offsetInCU: 0x1D5ED, offset: 0x6A67D, size: 0x8, addend: 0x0, symName: __ZNSt3__19allocatorIN2sf4Font3RowEE7destroyB8ue170006EPS3_, symObjAddr: 0x3DC0, symBinAddr: 0x10001011C, symSize: 0x14 }
  - { offsetInCU: 0x1D620, offset: 0x6A6B0, size: 0x8, addend: 0x0, symName: __ZNKSt3__16vectorIN2sf4Font3RowENS_9allocatorIS3_EEE31__annotate_contiguous_containerB8ue170006EPKvS8_S8_S8_, symObjAddr: 0x3DD4, symBinAddr: 0x100010130, symSize: 0x20 }
  - { offsetInCU: 0x1D671, offset: 0x6A701, size: 0x8, addend: 0x0, symName: __ZNKSt3__16vectorIN2sf4Font3RowENS_9allocatorIS3_EEE4dataB8ue170006Ev, symObjAddr: 0x3DF4, symBinAddr: 0x100010150, symSize: 0x28 }
  - { offsetInCU: 0x1D696, offset: 0x6A726, size: 0x8, addend: 0x0, symName: __ZNKSt3__16vectorIN2sf4Font3RowENS_9allocatorIS3_EEE4sizeB8ue170006Ev, symObjAddr: 0x3E1C, symBinAddr: 0x100010178, symSize: 0x28 }
  - { offsetInCU: 0x1D6BB, offset: 0x6A74B, size: 0x8, addend: 0x0, symName: __ZNSt3__19allocatorIN2sf4Font3RowEE10deallocateB8ue170006EPS3_m, symObjAddr: 0x3E44, symBinAddr: 0x1000101A0, symSize: 0x44 }
  - { offsetInCU: 0x1D6FC, offset: 0x6A78C, size: 0x8, addend: 0x0, symName: __ZNSt3__117__compressed_pairIPN2sf4Font3RowENS_9allocatorIS3_EEE6secondB8ue170006Ev, symObjAddr: 0x3E88, symBinAddr: 0x1000101E4, symSize: 0x24 }
  - { offsetInCU: 0x1D721, offset: 0x6A7B1, size: 0x8, addend: 0x0, symName: __ZNSt3__122__compressed_pair_elemINS_9allocatorIN2sf4Font3RowEEELi1ELb1EE5__getB8ue170006Ev, symObjAddr: 0x3EAC, symBinAddr: 0x100010208, symSize: 0x14 }
  - { offsetInCU: 0x1D746, offset: 0x6A7D6, size: 0x8, addend: 0x0, symName: __ZNKSt3__16vectorIN2sf4Font3RowENS_9allocatorIS3_EEE9__end_capB8ue170006Ev, symObjAddr: 0x3EC0, symBinAddr: 0x10001021C, symSize: 0x28 }
  - { offsetInCU: 0x1D76B, offset: 0x6A7FB, size: 0x8, addend: 0x0, symName: __ZNKSt3__117__compressed_pairIPN2sf4Font3RowENS_9allocatorIS3_EEE5firstB8ue170006Ev, symObjAddr: 0x3EE8, symBinAddr: 0x100010244, symSize: 0x24 }
  - { offsetInCU: 0x1D790, offset: 0x6A820, size: 0x8, addend: 0x0, symName: __ZNKSt3__122__compressed_pair_elemIPN2sf4Font3RowELi0ELb0EE5__getB8ue170006Ev, symObjAddr: 0x3F0C, symBinAddr: 0x100010268, symSize: 0x14 }
  - { offsetInCU: 0x1D7B5, offset: 0x6A845, size: 0x8, addend: 0x0, symName: __ZNSt3__113unordered_mapIyN2sf5GlyphENS_4hashIyEENS_8equal_toIyEENS_9allocatorINS_4pairIKyS2_EEEEED2B8ue170006Ev, symObjAddr: 0x3F20, symBinAddr: 0x10001027C, symSize: 0x2C }
  - { offsetInCU: 0x1D7DE, offset: 0x6A86E, size: 0x8, addend: 0x0, symName: __ZNSt3__112__hash_tableINS_17__hash_value_typeIyN2sf5GlyphEEENS_22__unordered_map_hasherIyS4_NS_4hashIyEENS_8equal_toIyEELb1EEENS_21__unordered_map_equalIyS4_S9_S7_Lb1EEENS_9allocatorIS4_EEED1Ev, symObjAddr: 0x3F4C, symBinAddr: 0x1000102A8, symSize: 0x2C }
  - { offsetInCU: 0x1D809, offset: 0x6A899, size: 0x8, addend: 0x0, symName: __ZNSt3__112__hash_tableINS_17__hash_value_typeIyN2sf5GlyphEEENS_22__unordered_map_hasherIyS4_NS_4hashIyEENS_8equal_toIyEELb1EEENS_21__unordered_map_equalIyS4_S9_S7_Lb1EEENS_9allocatorIS4_EEED2Ev, symObjAddr: 0x3F78, symBinAddr: 0x1000102D4, symSize: 0x48 }
  - { offsetInCU: 0x1D834, offset: 0x6A8C4, size: 0x8, addend: 0x0, symName: __ZNSt3__112__hash_tableINS_17__hash_value_typeIyN2sf5GlyphEEENS_22__unordered_map_hasherIyS4_NS_4hashIyEENS_8equal_toIyEELb1EEENS_21__unordered_map_equalIyS4_S9_S7_Lb1EEENS_9allocatorIS4_EEE17__deallocate_nodeEPNS_16__hash_node_baseIPNS_11__hash_nodeIS4_PvEEEE, symObjAddr: 0x3FC0, symBinAddr: 0x10001031C, symSize: 0xA8 }
  - { offsetInCU: 0x1D89D, offset: 0x6A92D, size: 0x8, addend: 0x0, symName: __ZNSt3__117__compressed_pairINS_16__hash_node_baseIPNS_11__hash_nodeINS_17__hash_value_typeIyN2sf5GlyphEEEPvEEEENS_9allocatorIS8_EEE5firstB8ue170006Ev, symObjAddr: 0x4068, symBinAddr: 0x1000103C4, symSize: 0x24 }
  - { offsetInCU: 0x1D8C2, offset: 0x6A952, size: 0x8, addend: 0x0, symName: __ZNSt3__110unique_ptrIA_PNS_16__hash_node_baseIPNS_11__hash_nodeINS_17__hash_value_typeIyN2sf5GlyphEEEPvEEEENS_25__bucket_list_deallocatorINS_9allocatorISB_EEEEED1B8ue170006Ev, symObjAddr: 0x408C, symBinAddr: 0x1000103E8, symSize: 0x2C }
  - { offsetInCU: 0x1D8EB, offset: 0x6A97B, size: 0x8, addend: 0x0, symName: __ZNSt3__112__hash_tableINS_17__hash_value_typeIyN2sf5GlyphEEENS_22__unordered_map_hasherIyS4_NS_4hashIyEENS_8equal_toIyEELb1EEENS_21__unordered_map_equalIyS4_S9_S7_Lb1EEENS_9allocatorIS4_EEE12__node_allocB8ue170006Ev, symObjAddr: 0x40B8, symBinAddr: 0x100010414, symSize: 0x28 }
  - { offsetInCU: 0x1D910, offset: 0x6A9A0, size: 0x8, addend: 0x0, symName: __ZNSt3__116__hash_node_baseIPNS_11__hash_nodeINS_17__hash_value_typeIyN2sf5GlyphEEEPvEEE8__upcastB8ue170006Ev, symObjAddr: 0x40E0, symBinAddr: 0x10001043C, symSize: 0x24 }
  - { offsetInCU: 0x1D93A, offset: 0x6A9CA, size: 0x8, addend: 0x0, symName: __ZNSt3__116allocator_traitsINS_9allocatorINS_11__hash_nodeINS_17__hash_value_typeIyN2sf5GlyphEEEPvEEEEE7destroyB8ue170006INS_4pairIKyS5_EEvvEEvRS9_PT_, symObjAddr: 0x4104, symBinAddr: 0x100010460, symSize: 0x14 }
  - { offsetInCU: 0x1D974, offset: 0x6AA04, size: 0x8, addend: 0x0, symName: __ZNSt3__122__hash_key_value_typesINS_17__hash_value_typeIyN2sf5GlyphEEEE9__get_ptrB8ue170006ERS4_, symObjAddr: 0x4118, symBinAddr: 0x100010474, symSize: 0x24 }
  - { offsetInCU: 0x1D997, offset: 0x6AA27, size: 0x8, addend: 0x0, symName: __ZNSt3__116allocator_traitsINS_9allocatorINS_11__hash_nodeINS_17__hash_value_typeIyN2sf5GlyphEEEPvEEEEE10deallocateB8ue170006ERS9_PS8_m, symObjAddr: 0x413C, symBinAddr: 0x100010498, symSize: 0x34 }
  - { offsetInCU: 0x1D9D9, offset: 0x6AA69, size: 0x8, addend: 0x0, symName: __ZNSt3__117__compressed_pairINS_16__hash_node_baseIPNS_11__hash_nodeINS_17__hash_value_typeIyN2sf5GlyphEEEPvEEEENS_9allocatorIS8_EEE6secondB8ue170006Ev, symObjAddr: 0x4170, symBinAddr: 0x1000104CC, symSize: 0x24 }
  - { offsetInCU: 0x1D9FE, offset: 0x6AA8E, size: 0x8, addend: 0x0, symName: __ZNSt3__122__compressed_pair_elemINS_9allocatorINS_11__hash_nodeINS_17__hash_value_typeIyN2sf5GlyphEEEPvEEEELi1ELb1EE5__getB8ue170006Ev, symObjAddr: 0x4194, symBinAddr: 0x1000104F0, symSize: 0x14 }
  - { offsetInCU: 0x1DA23, offset: 0x6AAB3, size: 0x8, addend: 0x0, symName: __ZNSt3__114pointer_traitsIPNS_16__hash_node_baseIPNS_11__hash_nodeINS_17__hash_value_typeIyN2sf5GlyphEEEPvEEEEE10pointer_toB8ue170006ERSA_, symObjAddr: 0x41A8, symBinAddr: 0x100010504, symSize: 0x14 }
  - { offsetInCU: 0x1DA46, offset: 0x6AAD6, size: 0x8, addend: 0x0, symName: __ZNSt3__117__hash_value_typeIyN2sf5GlyphEE11__get_valueB8ue170006Ev, symObjAddr: 0x41BC, symBinAddr: 0x100010518, symSize: 0x24 }
  - { offsetInCU: 0x1DA6B, offset: 0x6AAFB, size: 0x8, addend: 0x0, symName: __ZNSt3__19allocatorINS_11__hash_nodeINS_17__hash_value_typeIyN2sf5GlyphEEEPvEEE10deallocateB8ue170006EPS7_m, symObjAddr: 0x4218, symBinAddr: 0x100010574, symSize: 0x44 }
  - { offsetInCU: 0x1DAAC, offset: 0x6AB3C, size: 0x8, addend: 0x0, symName: __ZNSt3__122__compressed_pair_elemINS_16__hash_node_baseIPNS_11__hash_nodeINS_17__hash_value_typeIyN2sf5GlyphEEEPvEEEELi0ELb0EE5__getB8ue170006Ev, symObjAddr: 0x425C, symBinAddr: 0x1000105B8, symSize: 0x14 }
  - { offsetInCU: 0x1DAD1, offset: 0x6AB61, size: 0x8, addend: 0x0, symName: __ZNSt3__110unique_ptrIA_PNS_16__hash_node_baseIPNS_11__hash_nodeINS_17__hash_value_typeIyN2sf5GlyphEEEPvEEEENS_25__bucket_list_deallocatorINS_9allocatorISB_EEEEED2B8ue170006Ev, symObjAddr: 0x4270, symBinAddr: 0x1000105CC, symSize: 0x30 }
  - { offsetInCU: 0x1DAFA, offset: 0x6AB8A, size: 0x8, addend: 0x0, symName: __ZNSt3__110unique_ptrIA_PNS_16__hash_node_baseIPNS_11__hash_nodeINS_17__hash_value_typeIyN2sf5GlyphEEEPvEEEENS_25__bucket_list_deallocatorINS_9allocatorISB_EEEEE5resetB8ue170006EDn, symObjAddr: 0x42A0, symBinAddr: 0x1000105FC, symSize: 0x6C }
  - { offsetInCU: 0x1DB39, offset: 0x6ABC9, size: 0x8, addend: 0x0, symName: __ZNSt3__117__compressed_pairIPPNS_16__hash_node_baseIPNS_11__hash_nodeINS_17__hash_value_typeIyN2sf5GlyphEEEPvEEEENS_25__bucket_list_deallocatorINS_9allocatorISB_EEEEE5firstB8ue170006Ev, symObjAddr: 0x430C, symBinAddr: 0x100010668, symSize: 0x24 }
  - { offsetInCU: 0x1DB5E, offset: 0x6ABEE, size: 0x8, addend: 0x0, symName: __ZNSt3__117__compressed_pairIPPNS_16__hash_node_baseIPNS_11__hash_nodeINS_17__hash_value_typeIyN2sf5GlyphEEEPvEEEENS_25__bucket_list_deallocatorINS_9allocatorISB_EEEEE6secondB8ue170006Ev, symObjAddr: 0x4330, symBinAddr: 0x10001068C, symSize: 0x28 }
  - { offsetInCU: 0x1DB83, offset: 0x6AC13, size: 0x8, addend: 0x0, symName: __ZNSt3__125__bucket_list_deallocatorINS_9allocatorIPNS_16__hash_node_baseIPNS_11__hash_nodeINS_17__hash_value_typeIyN2sf5GlyphEEEPvEEEEEEEclB8ue170006EPSC_, symObjAddr: 0x4358, symBinAddr: 0x1000106B4, symSize: 0x58 }
  - { offsetInCU: 0x1DBB7, offset: 0x6AC47, size: 0x8, addend: 0x0, symName: __ZNSt3__122__compressed_pair_elemIPPNS_16__hash_node_baseIPNS_11__hash_nodeINS_17__hash_value_typeIyN2sf5GlyphEEEPvEEEELi0ELb0EE5__getB8ue170006Ev, symObjAddr: 0x43B0, symBinAddr: 0x10001070C, symSize: 0x14 }
  - { offsetInCU: 0x1DBDC, offset: 0x6AC6C, size: 0x8, addend: 0x0, symName: __ZNSt3__122__compressed_pair_elemINS_25__bucket_list_deallocatorINS_9allocatorIPNS_16__hash_node_baseIPNS_11__hash_nodeINS_17__hash_value_typeIyN2sf5GlyphEEEPvEEEEEEEELi1ELb0EE5__getB8ue170006Ev, symObjAddr: 0x43C4, symBinAddr: 0x100010720, symSize: 0x14 }
  - { offsetInCU: 0x1DC01, offset: 0x6AC91, size: 0x8, addend: 0x0, symName: __ZNSt3__116allocator_traitsINS_9allocatorIPNS_16__hash_node_baseIPNS_11__hash_nodeINS_17__hash_value_typeIyN2sf5GlyphEEEPvEEEEEEE10deallocateB8ue170006ERSD_PSC_m, symObjAddr: 0x43D8, symBinAddr: 0x100010734, symSize: 0x34 }
  - { offsetInCU: 0x1DC43, offset: 0x6ACD3, size: 0x8, addend: 0x0, symName: __ZNSt3__125__bucket_list_deallocatorINS_9allocatorIPNS_16__hash_node_baseIPNS_11__hash_nodeINS_17__hash_value_typeIyN2sf5GlyphEEEPvEEEEEEE7__allocB8ue170006Ev, symObjAddr: 0x440C, symBinAddr: 0x100010768, symSize: 0x24 }
  - { offsetInCU: 0x1DC68, offset: 0x6ACF8, size: 0x8, addend: 0x0, symName: __ZNSt3__125__bucket_list_deallocatorINS_9allocatorIPNS_16__hash_node_baseIPNS_11__hash_nodeINS_17__hash_value_typeIyN2sf5GlyphEEEPvEEEEEEE4sizeB8ue170006Ev, symObjAddr: 0x4430, symBinAddr: 0x10001078C, symSize: 0x24 }
  - { offsetInCU: 0x1DC8D, offset: 0x6AD1D, size: 0x8, addend: 0x0, symName: __ZNSt3__19allocatorIPNS_16__hash_node_baseIPNS_11__hash_nodeINS_17__hash_value_typeIyN2sf5GlyphEEEPvEEEEE10deallocateB8ue170006EPSB_m, symObjAddr: 0x4454, symBinAddr: 0x1000107B0, symSize: 0x40 }
  - { offsetInCU: 0x1DCCE, offset: 0x6AD5E, size: 0x8, addend: 0x0, symName: __ZNSt3__117__compressed_pairImNS_9allocatorIPNS_16__hash_node_baseIPNS_11__hash_nodeINS_17__hash_value_typeIyN2sf5GlyphEEEPvEEEEEEE6secondB8ue170006Ev, symObjAddr: 0x4494, symBinAddr: 0x1000107F0, symSize: 0x24 }
  - { offsetInCU: 0x1DCF3, offset: 0x6AD83, size: 0x8, addend: 0x0, symName: __ZNSt3__122__compressed_pair_elemINS_9allocatorIPNS_16__hash_node_baseIPNS_11__hash_nodeINS_17__hash_value_typeIyN2sf5GlyphEEEPvEEEEEELi1ELb1EE5__getB8ue170006Ev, symObjAddr: 0x44B8, symBinAddr: 0x100010814, symSize: 0x14 }
  - { offsetInCU: 0x1DD18, offset: 0x6ADA8, size: 0x8, addend: 0x0, symName: __ZNSt3__117__compressed_pairImNS_9allocatorIPNS_16__hash_node_baseIPNS_11__hash_nodeINS_17__hash_value_typeIyN2sf5GlyphEEEPvEEEEEEE5firstB8ue170006Ev, symObjAddr: 0x44CC, symBinAddr: 0x100010828, symSize: 0x24 }
  - { offsetInCU: 0x1DD3D, offset: 0x6ADCD, size: 0x8, addend: 0x0, symName: __ZNSt3__122__compressed_pair_elemImLi0ELb0EE5__getB8ue170006Ev, symObjAddr: 0x44F0, symBinAddr: 0x10001084C, symSize: 0x14 }
  - { offsetInCU: 0x1DD62, offset: 0x6ADF2, size: 0x8, addend: 0x0, symName: __ZNSt3__117__hash_value_typeIjN2sf4Font4PageEE11__get_valueB8ue170006Ev, symObjAddr: 0x4504, symBinAddr: 0x100010860, symSize: 0x24 }
  - { offsetInCU: 0x1DD87, offset: 0x6AE17, size: 0x8, addend: 0x0, symName: __ZNSt3__19allocatorINS_11__hash_nodeINS_17__hash_value_typeIjN2sf4Font4PageEEEPvEEE10deallocateB8ue170006EPS8_m, symObjAddr: 0x4560, symBinAddr: 0x1000108BC, symSize: 0x44 }
  - { offsetInCU: 0x1DDC8, offset: 0x6AE58, size: 0x8, addend: 0x0, symName: __ZNSt3__122__compressed_pair_elemINS_16__hash_node_baseIPNS_11__hash_nodeINS_17__hash_value_typeIjN2sf4Font4PageEEEPvEEEELi0ELb0EE5__getB8ue170006Ev, symObjAddr: 0x45A4, symBinAddr: 0x100010900, symSize: 0x14 }
  - { offsetInCU: 0x1DDED, offset: 0x6AE7D, size: 0x8, addend: 0x0, symName: __ZNSt3__110unique_ptrIA_PNS_16__hash_node_baseIPNS_11__hash_nodeINS_17__hash_value_typeIjN2sf4Font4PageEEEPvEEEENS_25__bucket_list_deallocatorINS_9allocatorISC_EEEEED2B8ue170006Ev, symObjAddr: 0x45B8, symBinAddr: 0x100010914, symSize: 0x30 }
  - { offsetInCU: 0x1DE16, offset: 0x6AEA6, size: 0x8, addend: 0x0, symName: __ZNSt3__110unique_ptrIA_PNS_16__hash_node_baseIPNS_11__hash_nodeINS_17__hash_value_typeIjN2sf4Font4PageEEEPvEEEENS_25__bucket_list_deallocatorINS_9allocatorISC_EEEEE5resetB8ue170006EDn, symObjAddr: 0x45E8, symBinAddr: 0x100010944, symSize: 0x6C }
  - { offsetInCU: 0x1DE55, offset: 0x6AEE5, size: 0x8, addend: 0x0, symName: __ZNSt3__117__compressed_pairIPPNS_16__hash_node_baseIPNS_11__hash_nodeINS_17__hash_value_typeIjN2sf4Font4PageEEEPvEEEENS_25__bucket_list_deallocatorINS_9allocatorISC_EEEEE5firstB8ue170006Ev, symObjAddr: 0x4654, symBinAddr: 0x1000109B0, symSize: 0x24 }
  - { offsetInCU: 0x1DE7A, offset: 0x6AF0A, size: 0x8, addend: 0x0, symName: __ZNSt3__117__compressed_pairIPPNS_16__hash_node_baseIPNS_11__hash_nodeINS_17__hash_value_typeIjN2sf4Font4PageEEEPvEEEENS_25__bucket_list_deallocatorINS_9allocatorISC_EEEEE6secondB8ue170006Ev, symObjAddr: 0x4678, symBinAddr: 0x1000109D4, symSize: 0x28 }
  - { offsetInCU: 0x1DE9F, offset: 0x6AF2F, size: 0x8, addend: 0x0, symName: __ZNSt3__125__bucket_list_deallocatorINS_9allocatorIPNS_16__hash_node_baseIPNS_11__hash_nodeINS_17__hash_value_typeIjN2sf4Font4PageEEEPvEEEEEEEclB8ue170006EPSD_, symObjAddr: 0x46A0, symBinAddr: 0x1000109FC, symSize: 0x58 }
  - { offsetInCU: 0x1DED3, offset: 0x6AF63, size: 0x8, addend: 0x0, symName: __ZNSt3__122__compressed_pair_elemIPPNS_16__hash_node_baseIPNS_11__hash_nodeINS_17__hash_value_typeIjN2sf4Font4PageEEEPvEEEELi0ELb0EE5__getB8ue170006Ev, symObjAddr: 0x46F8, symBinAddr: 0x100010A54, symSize: 0x14 }
  - { offsetInCU: 0x1DEF8, offset: 0x6AF88, size: 0x8, addend: 0x0, symName: __ZNSt3__122__compressed_pair_elemINS_25__bucket_list_deallocatorINS_9allocatorIPNS_16__hash_node_baseIPNS_11__hash_nodeINS_17__hash_value_typeIjN2sf4Font4PageEEEPvEEEEEEEELi1ELb0EE5__getB8ue170006Ev, symObjAddr: 0x470C, symBinAddr: 0x100010A68, symSize: 0x14 }
  - { offsetInCU: 0x1DF1D, offset: 0x6AFAD, size: 0x8, addend: 0x0, symName: __ZNSt3__116allocator_traitsINS_9allocatorIPNS_16__hash_node_baseIPNS_11__hash_nodeINS_17__hash_value_typeIjN2sf4Font4PageEEEPvEEEEEEE10deallocateB8ue170006ERSE_PSD_m, symObjAddr: 0x4720, symBinAddr: 0x100010A7C, symSize: 0x34 }
  - { offsetInCU: 0x1DF5F, offset: 0x6AFEF, size: 0x8, addend: 0x0, symName: __ZNSt3__125__bucket_list_deallocatorINS_9allocatorIPNS_16__hash_node_baseIPNS_11__hash_nodeINS_17__hash_value_typeIjN2sf4Font4PageEEEPvEEEEEEE7__allocB8ue170006Ev, symObjAddr: 0x4754, symBinAddr: 0x100010AB0, symSize: 0x24 }
  - { offsetInCU: 0x1DF84, offset: 0x6B014, size: 0x8, addend: 0x0, symName: __ZNSt3__125__bucket_list_deallocatorINS_9allocatorIPNS_16__hash_node_baseIPNS_11__hash_nodeINS_17__hash_value_typeIjN2sf4Font4PageEEEPvEEEEEEE4sizeB8ue170006Ev, symObjAddr: 0x4778, symBinAddr: 0x100010AD4, symSize: 0x24 }
  - { offsetInCU: 0x1DFA9, offset: 0x6B039, size: 0x8, addend: 0x0, symName: __ZNSt3__19allocatorIPNS_16__hash_node_baseIPNS_11__hash_nodeINS_17__hash_value_typeIjN2sf4Font4PageEEEPvEEEEE10deallocateB8ue170006EPSC_m, symObjAddr: 0x479C, symBinAddr: 0x100010AF8, symSize: 0x40 }
  - { offsetInCU: 0x1DFEA, offset: 0x6B07A, size: 0x8, addend: 0x0, symName: __ZNSt3__117__compressed_pairImNS_9allocatorIPNS_16__hash_node_baseIPNS_11__hash_nodeINS_17__hash_value_typeIjN2sf4Font4PageEEEPvEEEEEEE6secondB8ue170006Ev, symObjAddr: 0x47DC, symBinAddr: 0x100010B38, symSize: 0x24 }
  - { offsetInCU: 0x1E00F, offset: 0x6B09F, size: 0x8, addend: 0x0, symName: __ZNSt3__122__compressed_pair_elemINS_9allocatorIPNS_16__hash_node_baseIPNS_11__hash_nodeINS_17__hash_value_typeIjN2sf4Font4PageEEEPvEEEEEELi1ELb1EE5__getB8ue170006Ev, symObjAddr: 0x4800, symBinAddr: 0x100010B5C, symSize: 0x14 }
  - { offsetInCU: 0x1E034, offset: 0x6B0C4, size: 0x8, addend: 0x0, symName: __ZNSt3__117__compressed_pairImNS_9allocatorIPNS_16__hash_node_baseIPNS_11__hash_nodeINS_17__hash_value_typeIjN2sf4Font4PageEEEPvEEEEEEE5firstB8ue170006Ev, symObjAddr: 0x4814, symBinAddr: 0x100010B70, symSize: 0x24 }
  - { offsetInCU: 0x1E059, offset: 0x6B0E9, size: 0x8, addend: 0x0, symName: __ZN2sf4Font4InfoD2Ev, symObjAddr: 0x4838, symBinAddr: 0x100010B94, symSize: 0x2C }
  - { offsetInCU: 0x1E084, offset: 0x6B114, size: 0x8, addend: 0x0, symName: __ZNSt3__110shared_ptrIN2sf4Font11FontHandlesEED2B8ue170006Ev, symObjAddr: 0x4864, symBinAddr: 0x100010BC0, symSize: 0x54 }
  - { offsetInCU: 0x1E0AD, offset: 0x6B13D, size: 0x8, addend: 0x0, symName: __ZN11SpritesheetD2Ev, symObjAddr: 0x48B8, symBinAddr: 0x100010C14, symSize: 0x48 }
  - { offsetInCU: 0x1E0D8, offset: 0x6B168, size: 0x8, addend: 0x0, symName: __ZN2sf12RenderWindowD2Ev, symObjAddr: 0x4900, symBinAddr: 0x100010C5C, symSize: 0x38 }
  - { offsetInCU: 0x1E103, offset: 0x6B193, size: 0x8, addend: 0x0, symName: __ZThn72_N2sf12RenderWindowD1Ev, symObjAddr: 0x4938, symBinAddr: 0x100010C94, symSize: 0x1C }
  - { offsetInCU: 0x1E119, offset: 0x6B1A9, size: 0x8, addend: 0x0, symName: __ZN2sf12RenderTargetD2Ev, symObjAddr: 0x4954, symBinAddr: 0x100010CB0, symSize: 0x14 }
  - { offsetInCU: 0x1E142, offset: 0x6B1D2, size: 0x8, addend: 0x0, symName: __ZNSt3__14__fs10filesystem4pathC2B8ue170006IA17_cvEERKT_NS2_6formatE, symObjAddr: 0x4A18, symBinAddr: 0x100010CC4, symSize: 0x68 }
  - { offsetInCU: 0x1E194, offset: 0x6B224, size: 0x8, addend: 0x0, symName: __ZNSt3__14__fs10filesystem8_PathCVTIcE15__append_sourceB8ue170006IA17_cEEvRNS_12basic_stringIcNS_11char_traitsIcEENS_9allocatorIcEEEERKT_, symObjAddr: 0x4A80, symBinAddr: 0x100010D2C, symSize: 0x4C }
  - { offsetInCU: 0x1E1D0, offset: 0x6B260, size: 0x8, addend: 0x0, symName: __ZNSt3__14__fs10filesystem8_PathCVTIcE14__append_rangeB8ue170006IPKcEENS_9enable_ifIXsr31__has_forward_iterator_categoryIT_EE5valueEvE4typeERNS_12basic_stringIcNS_11char_traitsIcEENS_9allocatorIcEEEES8_S8_, symObjAddr: 0x4ACC, symBinAddr: 0x100010D78, symSize: 0x34 }
  - { offsetInCU: 0x1E21B, offset: 0x6B2AB, size: 0x8, addend: 0x0, symName: __ZNSt3__14__fs10filesystem24__is_pathable_char_arrayIA17_cPccLb1EE13__range_beginB8ue170006EPKc, symObjAddr: 0x4B00, symBinAddr: 0x100010DAC, symSize: 0x14 }
  - { offsetInCU: 0x1E23E, offset: 0x6B2CE, size: 0x8, addend: 0x0, symName: __ZNSt3__14__fs10filesystem24__is_pathable_char_arrayIA17_cPccLb1EE11__range_endB8ue170006EPKc, symObjAddr: 0x4B14, symBinAddr: 0x100010DC0, symSize: 0x50 }
  - { offsetInCU: 0x1E288, offset: 0x6B318, size: 0x8, addend: 0x0, symName: __ZNSt3__112basic_stringIcNS_11char_traitsIcEENS_9allocatorIcEEE6appendB8ue170006IPKcLi0EEERS5_T_SA_, symObjAddr: 0x4B64, symBinAddr: 0x100010E10, symSize: 0x1E4 }
  - { offsetInCU: 0x1E33B, offset: 0x6B3CB, size: 0x8, addend: 0x0, symName: __ZNKSt3__112basic_stringIcNS_11char_traitsIcEENS_9allocatorIcEEE4sizeB8ue170006Ev, symObjAddr: 0x4D48, symBinAddr: 0x100010FF4, symSize: 0x54 }
  - { offsetInCU: 0x1E360, offset: 0x6B3F0, size: 0x8, addend: 0x0, symName: __ZNKSt3__112basic_stringIcNS_11char_traitsIcEENS_9allocatorIcEEE8capacityB8ue170006Ev, symObjAddr: 0x4D9C, symBinAddr: 0x100011048, symSize: 0x54 }
  - { offsetInCU: 0x1E385, offset: 0x6B415, size: 0x8, addend: 0x0, symName: __ZNKSt3__112basic_stringIcNS_11char_traitsIcEENS_9allocatorIcEEE15__addr_in_rangeB8ue170006IcEEbRKT_, symObjAddr: 0x4E1C, symBinAddr: 0x1000110C8, symSize: 0x6C }
  - { offsetInCU: 0x1E3C2, offset: 0x6B452, size: 0x8, addend: 0x0, symName: __ZNSt3__112basic_stringIcNS_11char_traitsIcEENS_9allocatorIcEEE25__grow_by_without_replaceB8ue170006Emmmmmm, symObjAddr: 0x4E88, symBinAddr: 0x100011134, symSize: 0x74 }
  - { offsetInCU: 0x1E443, offset: 0x6B4D3, size: 0x8, addend: 0x0, symName: __ZNSt3__111char_traitsIcE6assignB8ue170006ERcRKc, symObjAddr: 0x4F50, symBinAddr: 0x1000111A8, symSize: 0x24 }
  - { offsetInCU: 0x1E474, offset: 0x6B504, size: 0x8, addend: 0x0, symName: __ZNSt3__112basic_stringIcNS_11char_traitsIcEENS_9allocatorIcEEE10__set_sizeB8ue170006Em, symObjAddr: 0x4F74, symBinAddr: 0x1000111CC, symSize: 0x54 }
  - { offsetInCU: 0x1E4A8, offset: 0x6B538, size: 0x8, addend: 0x0, symName: __ZNSt3__112basic_stringIcNS_11char_traitsIcEENS_9allocatorIcEEE7__allocB8ue170006Ev, symObjAddr: 0x4FC8, symBinAddr: 0x100011220, symSize: 0x24 }
  - { offsetInCU: 0x1E4CD, offset: 0x6B55D, size: 0x8, addend: 0x0, symName: __ZNSt3__112basic_stringIcNS_11char_traitsIcEENS_9allocatorIcEEEC1B8ue170006IPKcLi0EEET_S9_RKS4_, symObjAddr: 0x4FEC, symBinAddr: 0x100011244, symSize: 0x44 }
  - { offsetInCU: 0x1E532, offset: 0x6B5C2, size: 0x8, addend: 0x0, symName: __ZNKSt3__112basic_stringIcNS_11char_traitsIcEENS_9allocatorIcEEE4dataB8ue170006Ev, symObjAddr: 0x5030, symBinAddr: 0x100011288, symSize: 0x28 }
  - { offsetInCU: 0x1E557, offset: 0x6B5E7, size: 0x8, addend: 0x0, symName: __ZNKSt3__112basic_stringIcNS_11char_traitsIcEENS_9allocatorIcEEE15__get_long_sizeB8ue170006Ev, symObjAddr: 0x5090, symBinAddr: 0x1000112B0, symSize: 0x28 }
  - { offsetInCU: 0x1E57C, offset: 0x6B60C, size: 0x8, addend: 0x0, symName: __ZNKSt3__112basic_stringIcNS_11char_traitsIcEENS_9allocatorIcEEE16__get_short_sizeB8ue170006Ev, symObjAddr: 0x50B8, symBinAddr: 0x1000112D8, symSize: 0x34 }
  - { offsetInCU: 0x1E5A1, offset: 0x6B631, size: 0x8, addend: 0x0, symName: __ZNKSt3__112basic_stringIcNS_11char_traitsIcEENS_9allocatorIcEEE14__get_long_capB8ue170006Ev, symObjAddr: 0x5124, symBinAddr: 0x10001130C, symSize: 0x30 }
  - { offsetInCU: 0x1E5DA, offset: 0x6B66A, size: 0x8, addend: 0x0, symName: __ZNKSt3__16__lessIvvEclB8ue170006IPKcS4_EEbRKT_RKT0_, symObjAddr: 0x51DC, symBinAddr: 0x1000113C4, symSize: 0x34 }
  - { offsetInCU: 0x1E62D, offset: 0x6B6BD, size: 0x8, addend: 0x0, symName: __ZNSt3__112basic_stringIcNS_11char_traitsIcEENS_9allocatorIcEEE15__set_long_sizeB8ue170006Em, symObjAddr: 0x5210, symBinAddr: 0x1000113F8, symSize: 0x38 }
  - { offsetInCU: 0x1E661, offset: 0x6B6F1, size: 0x8, addend: 0x0, symName: __ZNSt3__112basic_stringIcNS_11char_traitsIcEENS_9allocatorIcEEE16__set_short_sizeB8ue170006Em, symObjAddr: 0x52AC, symBinAddr: 0x100011430, symSize: 0x78 }
  - { offsetInCU: 0x1E695, offset: 0x6B725, size: 0x8, addend: 0x0, symName: __ZNSt3__117__compressed_pairINS_12basic_stringIcNS_11char_traitsIcEENS_9allocatorIcEEE5__repES5_E6secondB8ue170006Ev, symObjAddr: 0x5324, symBinAddr: 0x1000114A8, symSize: 0x24 }
  - { offsetInCU: 0x1E6BA, offset: 0x6B74A, size: 0x8, addend: 0x0, symName: __ZNSt3__122__compressed_pair_elemINS_9allocatorIcEELi1ELb1EE5__getB8ue170006Ev, symObjAddr: 0x5348, symBinAddr: 0x1000114CC, symSize: 0x14 }
  - { offsetInCU: 0x1E6DF, offset: 0x6B76F, size: 0x8, addend: 0x0, symName: __ZNSt3__112basic_stringIcNS_11char_traitsIcEENS_9allocatorIcEEEC2B8ue170006IPKcLi0EEET_S9_RKS4_, symObjAddr: 0x535C, symBinAddr: 0x1000114E0, symSize: 0x50 }
  - { offsetInCU: 0x1E744, offset: 0x6B7D4, size: 0x8, addend: 0x0, symName: __ZNSt3__117__compressed_pairINS_12basic_stringIcNS_11char_traitsIcEENS_9allocatorIcEEE5__repES5_EC1B8ue170006INS_18__default_init_tagERKS5_EEOT_OT0_, symObjAddr: 0x53AC, symBinAddr: 0x100011530, symSize: 0x3C }
  - { offsetInCU: 0x1E79B, offset: 0x6B82B, size: 0x8, addend: 0x0, symName: __ZNSt3__112basic_stringIcNS_11char_traitsIcEENS_9allocatorIcEEE6__initIPKcLi0EEEvT_S9_, symObjAddr: 0x53E8, symBinAddr: 0x10001156C, symSize: 0x54 }
  - { offsetInCU: 0x1E7FE, offset: 0x6B88E, size: 0x8, addend: 0x0, symName: __ZNSt3__117__compressed_pairINS_12basic_stringIcNS_11char_traitsIcEENS_9allocatorIcEEE5__repES5_EC2B8ue170006INS_18__default_init_tagERKS5_EEOT_OT0_, symObjAddr: 0x543C, symBinAddr: 0x1000115C0, symSize: 0x40 }
  - { offsetInCU: 0x1E855, offset: 0x6B8E5, size: 0x8, addend: 0x0, symName: __ZNSt3__122__compressed_pair_elemINS_9allocatorIcEELi1ELb1EEC2B8ue170006IRKS2_vEEOT_, symObjAddr: 0x547C, symBinAddr: 0x100011600, symSize: 0x18 }
  - { offsetInCU: 0x1E896, offset: 0x6B926, size: 0x8, addend: 0x0, symName: __ZNSt3__112basic_stringIcNS_11char_traitsIcEENS_9allocatorIcEEE16__init_with_sizeB8ue170006IPKcS8_EEvT_T0_m, symObjAddr: 0x5494, symBinAddr: 0x100011618, symSize: 0x144 }
  - { offsetInCU: 0x1E928, offset: 0x6B9B8, size: 0x8, addend: 0x0, symName: __ZNKSt3__112basic_stringIcNS_11char_traitsIcEENS_9allocatorIcEEE8max_sizeB8ue170006Ev, symObjAddr: 0x55D8, symBinAddr: 0x10001175C, symSize: 0xAC }
  - { offsetInCU: 0x1E979, offset: 0x6BA09, size: 0x8, addend: 0x0, symName: __ZNKSt3__112basic_stringIcNS_11char_traitsIcEENS_9allocatorIcEEE20__throw_length_errorB8ue170006Ev, symObjAddr: 0x5684, symBinAddr: 0x100011808, symSize: 0x1C }
  - { offsetInCU: 0x1E99E, offset: 0x6BA2E, size: 0x8, addend: 0x0, symName: __ZNSt3__112basic_stringIcNS_11char_traitsIcEENS_9allocatorIcEEE13__fits_in_ssoB8ue170006Em, symObjAddr: 0x56A0, symBinAddr: 0x100011824, symSize: 0x20 }
  - { offsetInCU: 0x1E9C2, offset: 0x6BA52, size: 0x8, addend: 0x0, symName: __ZNSt3__112basic_stringIcNS_11char_traitsIcEENS_9allocatorIcEEE11__recommendB8ue170006Em, symObjAddr: 0x5700, symBinAddr: 0x100011884, symSize: 0x84 }
  - { offsetInCU: 0x1E9F5, offset: 0x6BA85, size: 0x8, addend: 0x0, symName: __ZNSt3__112basic_stringIcNS_11char_traitsIcEENS_9allocatorIcEEE16__begin_lifetimeB8ue170006EPcm, symObjAddr: 0x5784, symBinAddr: 0x100011908, symSize: 0x14 }
  - { offsetInCU: 0x1EA28, offset: 0x6BAB8, size: 0x8, addend: 0x0, symName: __ZNSt3__112basic_stringIcNS_11char_traitsIcEENS_9allocatorIcEEE18__set_long_pointerB8ue170006EPc, symObjAddr: 0x5798, symBinAddr: 0x10001191C, symSize: 0x38 }
  - { offsetInCU: 0x1EA5C, offset: 0x6BAEC, size: 0x8, addend: 0x0, symName: __ZNSt3__112basic_stringIcNS_11char_traitsIcEENS_9allocatorIcEEE14__set_long_capB8ue170006Em, symObjAddr: 0x57D0, symBinAddr: 0x100011954, symSize: 0x70 }
  - { offsetInCU: 0x1EA9A, offset: 0x6BB2A, size: 0x8, addend: 0x0, symName: __ZNSt3__116allocator_traitsINS_9allocatorIcEEE8max_sizeB8ue170006IS2_vEEmRKS2_, symObjAddr: 0x5840, symBinAddr: 0x1000119C4, symSize: 0x24 }
  - { offsetInCU: 0x1EAC8, offset: 0x6BB58, size: 0x8, addend: 0x0, symName: __ZNKSt3__112basic_stringIcNS_11char_traitsIcEENS_9allocatorIcEEE7__allocB8ue170006Ev, symObjAddr: 0x5864, symBinAddr: 0x1000119E8, symSize: 0x24 }
  - { offsetInCU: 0x1EAED, offset: 0x6BB7D, size: 0x8, addend: 0x0, symName: __ZNKSt3__19allocatorIcE8max_sizeB8ue170006Ev, symObjAddr: 0x589C, symBinAddr: 0x100011A0C, symSize: 0x14 }
  - { offsetInCU: 0x1EB12, offset: 0x6BBA2, size: 0x8, addend: 0x0, symName: __ZNKSt3__117__compressed_pairINS_12basic_stringIcNS_11char_traitsIcEENS_9allocatorIcEEE5__repES5_E6secondB8ue170006Ev, symObjAddr: 0x58B0, symBinAddr: 0x100011A20, symSize: 0x24 }
  - { offsetInCU: 0x1EB37, offset: 0x6BBC7, size: 0x8, addend: 0x0, symName: __ZNKSt3__122__compressed_pair_elemINS_9allocatorIcEELi1ELb1EE5__getB8ue170006Ev, symObjAddr: 0x58D4, symBinAddr: 0x100011A44, symSize: 0x14 }
  - { offsetInCU: 0x1EB5C, offset: 0x6BBEC, size: 0x8, addend: 0x0, symName: __ZNSt3__19allocatorIcE8allocateB8ue170006Em, symObjAddr: 0x59D4, symBinAddr: 0x100011A58, symSize: 0x58 }
  - { offsetInCU: 0x1EB8F, offset: 0x6BC1F, size: 0x8, addend: 0x0, symName: __ZNSt3__112basic_stringIcNS_11char_traitsIcEENS_9allocatorIcEEE10__align_itB8ue170006ILm16EEEmm, symObjAddr: 0x5B10, symBinAddr: 0x100011AB0, symSize: 0x1C }
  - { offsetInCU: 0x1EBBD, offset: 0x6BC4D, size: 0x8, addend: 0x0, symName: __ZNKSt3__112basic_stringIcNS_11char_traitsIcEENS_9allocatorIcEEE13__get_pointerB8ue170006Ev, symObjAddr: 0x5B40, symBinAddr: 0x100011AE0, symSize: 0x54 }
  - { offsetInCU: 0x1EBE2, offset: 0x6BC72, size: 0x8, addend: 0x0, symName: __ZNKSt3__112basic_stringIcNS_11char_traitsIcEENS_9allocatorIcEEE18__get_long_pointerB8ue170006Ev, symObjAddr: 0x5B94, symBinAddr: 0x100011B34, symSize: 0x28 }
  - { offsetInCU: 0x1EC07, offset: 0x6BC97, size: 0x8, addend: 0x0, symName: __ZNKSt3__112basic_stringIcNS_11char_traitsIcEENS_9allocatorIcEEE19__get_short_pointerB8ue170006Ev, symObjAddr: 0x5BBC, symBinAddr: 0x100011B5C, symSize: 0x28 }
  - { offsetInCU: 0x1EC2C, offset: 0x6BCBC, size: 0x8, addend: 0x0, symName: __ZNSt3__114pointer_traitsIPKcE10pointer_toB8ue170006ERS1_, symObjAddr: 0x5BE4, symBinAddr: 0x100011B84, symSize: 0x14 }
  - { offsetInCU: 0x1EC4F, offset: 0x6BCDF, size: 0x8, addend: 0x0, symName: __ZNKSt3__17variantIJN2sf5Event6ClosedENS2_7ResizedENS2_9FocusLostENS2_11FocusGainedENS2_11TextEnteredENS2_10KeyPressedENS2_11KeyReleasedENS2_18MouseWheelScrolledENS2_18MouseButtonPressedENS2_19MouseButtonReleasedENS2_10MouseMovedENS2_13MouseMovedRawENS2_12MouseEnteredENS2_9MouseLeftENS2_21JoystickButtonPressedENS2_22JoystickButtonReleasedENS2_13JoystickMovedENS2_17JoystickConnectedENS2_20JoystickDisconnectedENS2_10TouchBeganENS2_10TouchMovedENS2_10TouchEndedENS2_13SensorChangedEEE5indexB8ue170006Ev, symObjAddr: 0x5C50, symBinAddr: 0x100011BF0, symSize: 0x24 }
  - { offsetInCU: 0x1EC74, offset: 0x6BD04, size: 0x8, addend: 0x0, symName: __ZNKSt3__116__variant_detail6__baseILNS0_6_TraitE0EJN2sf5Event6ClosedENS4_7ResizedENS4_9FocusLostENS4_11FocusGainedENS4_11TextEnteredENS4_10KeyPressedENS4_11KeyReleasedENS4_18MouseWheelScrolledENS4_18MouseButtonPressedENS4_19MouseButtonReleasedENS4_10MouseMovedENS4_13MouseMovedRawENS4_12MouseEnteredENS4_9MouseLeftENS4_21JoystickButtonPressedENS4_22JoystickButtonReleasedENS4_13JoystickMovedENS4_17JoystickConnectedENS4_20JoystickDisconnectedENS4_10TouchBeganENS4_10TouchMovedENS4_10TouchEndedENS4_13SensorChangedEEE5indexB8ue170006Ev, symObjAddr: 0x5C74, symBinAddr: 0x100011C14, symSize: 0x4C }
  - { offsetInCU: 0x3F, offset: 0x6BEED, size: 0x8, addend: 0x0, symName: _start, symObjAddr: 0x1D74, symBinAddr: 0x100018000, symSize: 0x0 }
  - { offsetInCU: 0xFFA7, offset: 0x7BE55, size: 0x8, addend: 0x0, symName: __ZN11Spritesheet12loadFromFileERKNSt3__112basic_stringIcNS0_11char_traitsIcEENS0_9allocatorIcEEEE, symObjAddr: 0x0, symBinAddr: 0x100011C60, symSize: 0x110 }
  - { offsetInCU: 0xFFE9, offset: 0x7BE97, size: 0x8, addend: 0x0, symName: __ZNSt3__14__fs10filesystem4pathC1B8ue170006INS_12basic_stringIcNS_11char_traitsIcEENS_9allocatorIcEEEEvEERKT_NS2_6formatE, symObjAddr: 0x110, symBinAddr: 0x100011D70, symSize: 0x3C }
  - { offsetInCU: 0x10036, offset: 0x7BEE4, size: 0x8, addend: 0x0, symName: __ZN2sf4RectIiEC1Ev, symObjAddr: 0x14C, symBinAddr: 0x100011DAC, symSize: 0x2C }
  - { offsetInCU: 0x1005F, offset: 0x7BF0D, size: 0x8, addend: 0x0, symName: __ZN11Spritesheet8loadUndoERKNSt3__112basic_stringIcNS0_11char_traitsIcEENS0_9allocatorIcEEEE, symObjAddr: 0x1A4, symBinAddr: 0x100011DD8, symSize: 0xDC }
  - { offsetInCU: 0x10093, offset: 0x7BF41, size: 0x8, addend: 0x0, symName: __ZN11Spritesheet11loadNewDealERKNSt3__112basic_stringIcNS0_11char_traitsIcEENS0_9allocatorIcEEEE, symObjAddr: 0x280, symBinAddr: 0x100011EB4, symSize: 0xDC }
  - { offsetInCU: 0x100C7, offset: 0x7BF75, size: 0x8, addend: 0x0, symName: __ZNK11Spritesheet13getCardSpriteEii, symObjAddr: 0x35C, symBinAddr: 0x100011F90, symSize: 0xD0 }
  - { offsetInCU: 0x10126, offset: 0x7BFD4, size: 0x8, addend: 0x0, symName: __ZN2sf7Vector2IiEC1Eii, symObjAddr: 0x42C, symBinAddr: 0x100012060, symSize: 0x3C }
  - { offsetInCU: 0x1016D, offset: 0x7C01B, size: 0x8, addend: 0x0, symName: __ZN2sf4RectIiEC1ENS_7Vector2IiEES3_, symObjAddr: 0x468, symBinAddr: 0x10001209C, symSize: 0x3C }
  - { offsetInCU: 0x101B4, offset: 0x7C062, size: 0x8, addend: 0x0, symName: __ZN11Spritesheet14makeBackSpriteEv, symObjAddr: 0x4D0, symBinAddr: 0x1000120D8, symSize: 0xB0 }
  - { offsetInCU: 0x101DA, offset: 0x7C088, size: 0x8, addend: 0x0, symName: __ZNK11Spritesheet15makeResetSpriteEv, symObjAddr: 0x5D8, symBinAddr: 0x100012188, symSize: 0x34 }
  - { offsetInCU: 0x10200, offset: 0x7C0AE, size: 0x8, addend: 0x0, symName: __ZNK11Spritesheet14makeCardSpriteERK4Card, symObjAddr: 0x60C, symBinAddr: 0x1000121BC, symSize: 0xE8 }
  - { offsetInCU: 0x1026D, offset: 0x7C11B, size: 0x8, addend: 0x0, symName: __ZN2sf4RectIiEC2Ev, symObjAddr: 0x724, symBinAddr: 0x1000122A4, symSize: 0x40 }
  - { offsetInCU: 0x10296, offset: 0x7C144, size: 0x8, addend: 0x0, symName: __ZN2sf7Vector2IiEC1Ev, symObjAddr: 0x764, symBinAddr: 0x1000122E4, symSize: 0x2C }
  - { offsetInCU: 0x102BF, offset: 0x7C16D, size: 0x8, addend: 0x0, symName: __ZN2sf7Vector2IiEC2Ev, symObjAddr: 0x790, symBinAddr: 0x100012310, symSize: 0x1C }
  - { offsetInCU: 0x102E8, offset: 0x7C196, size: 0x8, addend: 0x0, symName: __ZN2sf7Vector2IiEC2Eii, symObjAddr: 0x7D8, symBinAddr: 0x10001232C, symSize: 0x2C }
  - { offsetInCU: 0x1032F, offset: 0x7C1DD, size: 0x8, addend: 0x0, symName: __ZN2sf4RectIiEC2ENS_7Vector2IiEES3_, symObjAddr: 0x804, symBinAddr: 0x100012358, symSize: 0x2C }
  - { offsetInCU: 0x10376, offset: 0x7C224, size: 0x8, addend: 0x0, symName: __ZNSt3__14__fs10filesystem4pathC2B8ue170006INS_12basic_stringIcNS_11char_traitsIcEENS_9allocatorIcEEEEvEERKT_NS2_6formatE, symObjAddr: 0x8E8, symBinAddr: 0x100012384, symSize: 0x68 }
  - { offsetInCU: 0x103C8, offset: 0x7C276, size: 0x8, addend: 0x0, symName: __ZNSt3__14__fs10filesystem8_PathCVTIcE15__append_sourceB8ue170006INS_12basic_stringIcNS_11char_traitsIcEENS_9allocatorIcEEEEEEvRSA_RKT_, symObjAddr: 0x97C, symBinAddr: 0x1000123EC, symSize: 0x4C }
  - { offsetInCU: 0x1040E, offset: 0x7C2BC, size: 0x8, addend: 0x0, symName: __ZNSt3__14__fs10filesystem20__is_pathable_stringINS_12basic_stringIcNS_11char_traitsIcEENS_9allocatorIcEEEEvE13__range_beginB8ue170006ERKS8_, symObjAddr: 0xBC0, symBinAddr: 0x100012438, symSize: 0x24 }
  - { offsetInCU: 0x10431, offset: 0x7C2DF, size: 0x8, addend: 0x0, symName: __ZNSt3__14__fs10filesystem20__is_pathable_stringINS_12basic_stringIcNS_11char_traitsIcEENS_9allocatorIcEEEEvE11__range_endB8ue170006ERKS8_, symObjAddr: 0xBE4, symBinAddr: 0x10001245C, symSize: 0x3C }
  - { offsetInCU: 0x10459, offset: 0x7C307, size: 0x8, addend: 0x0, symName: __ZNKSt3__112basic_stringIcNS_11char_traitsIcEENS_9allocatorIcEEE6lengthB8ue170006Ev, symObjAddr: 0x1CD4, symBinAddr: 0x100012498, symSize: 0x24 }
...
